Archive member included to satisfy reference by file (symbol)

arch/arm/lib/lib.a(ashldi3.o)
                              drivers/built-in.o (__aeabi_llsl)
arch/arm/lib/lib.a(lib1funcs.o)
                              arch/arm/mach-sunxi/built-in.o (__aeabi_uidiv)
arch/arm/lib/lib.a(lshrdi3.o)
                              fs/built-in.o (__aeabi_llsr)
arch/arm/lib/lib.a(div0.o)    arch/arm/lib/lib.a(lib1funcs.o) (__div0)

Discarded input sections

 .data          0x0000000000000000        0x0 arch/arm/cpu/armv7/start.o
 .bss           0x0000000000000000        0x0 arch/arm/cpu/armv7/start.o
 .text.mmu_page_table_flush
                0x0000000000000000       0x1e arch/arm/cpu/armv7/built-in.o
 .text.v7_outer_cache_inval_range
                0x0000000000000000        0x2 arch/arm/cpu/armv7/built-in.o
 .text.invalidate_dcache_range
                0x0000000000000000       0x40 arch/arm/cpu/armv7/built-in.o
 .text.v7_arch_cp15_set_l2aux_ctrl
                0x0000000000000000        0x6 arch/arm/cpu/armv7/built-in.o
 .text.v7_arch_cp15_set_acr
                0x0000000000000000        0x6 arch/arm/cpu/armv7/built-in.o
 .text.wait_on_value
                0x0000000000000000       0x1e arch/arm/cpu/armv7/built-in.o
 .text.s_init   0x0000000000000000        0x4 arch/arm/cpu/armv7/built-in.o
 .text.protect_secure_section
                0x0000000000000000        0x2 arch/arm/cpu/armv7/built-in.o
 .text.smp_kick_all_cpus
                0x0000000000000000       0x18 arch/arm/cpu/armv7/built-in.o
 .data          0x0000000000000000        0x0 arch/arm/cpu/armv7/built-in.o
 .bss           0x0000000000000000        0x0 arch/arm/cpu/armv7/built-in.o
 .text.enable_caches
                0x0000000000000000        0xc arch/arm/lib/built-in.o
 .text.invalidate_dcache_range
                0x0000000000000000        0x2 arch/arm/lib/built-in.o
 .text.flush_dcache_range
                0x0000000000000000        0x2 arch/arm/lib/built-in.o
 .text.flush_dcache_all
                0x0000000000000000        0xa arch/arm/lib/built-in.o
 .text.invalidate_l2_cache
                0x0000000000000000        0xc arch/arm/lib/built-in.o
 .text.arm_init_before_mmu
                0x0000000000000000        0x2 arch/arm/lib/built-in.o
 .text.mmu_page_table_flush
                0x0000000000000000        0x2 arch/arm/lib/built-in.o
 .text.mmu_set_region_dcache_behaviour
                0x0000000000000000       0x44 arch/arm/lib/built-in.o
 .text.icache_status
                0x0000000000000000        0xa arch/arm/lib/built-in.o
 .data          0x0000000000000000        0x0 arch/arm/lib/built-in.o
 .bss           0x0000000000000000        0x0 arch/arm/lib/built-in.o
 .text          0x0000000000000000        0x0 arch/arm/mach-sunxi/built-in.o
 .text.gtbus_init
                0x0000000000000000        0x2 arch/arm/mach-sunxi/built-in.o
 .text.mctl_await_completion
                0x0000000000000000       0x34 arch/arm/mach-sunxi/built-in.o
 .text.mctl_mem_matches
                0x0000000000000000       0x34 arch/arm/mach-sunxi/built-in.o
 .text.sunxi_gpio_get_cfgpin
                0x0000000000000000       0x24 arch/arm/mach-sunxi/built-in.o
 .text.sunxi_usb_phy_enable_squelch_detect
                0x0000000000000000       0x74 arch/arm/mach-sunxi/built-in.o
 .text.sunxi_usb_phy_init
                0x0000000000000000       0x60 arch/arm/mach-sunxi/built-in.o
 .text.sunxi_usb_phy_exit
                0x0000000000000000       0x40 arch/arm/mach-sunxi/built-in.o
 .text.sunxi_usb_phy_power_on
                0x0000000000000000       0x48 arch/arm/mach-sunxi/built-in.o
 .text.sunxi_usb_phy_power_off
                0x0000000000000000       0x20 arch/arm/mach-sunxi/built-in.o
 .text.sunxi_usb_phy_vbus_detect
                0x0000000000000000       0x40 arch/arm/mach-sunxi/built-in.o
 .text.sunxi_usb_phy_id_detect
                0x0000000000000000       0x18 arch/arm/mach-sunxi/built-in.o
 .text.sunxi_usb_phy_remove
                0x0000000000000000       0x40 arch/arm/mach-sunxi/built-in.o
 .text.rsb_await_trans
                0x0000000000000000       0x4c arch/arm/mach-sunxi/built-in.o
 .text.rsb_do_trans
                0x0000000000000000       0x14 arch/arm/mach-sunxi/built-in.o
 .text.rsb_init
                0x0000000000000000       0x9c arch/arm/mach-sunxi/built-in.o
 .text.rsb_set_device_address
                0x0000000000000000       0x20 arch/arm/mach-sunxi/built-in.o
 .text.rsb_write
                0x0000000000000000       0x2c arch/arm/mach-sunxi/built-in.o
 .text.rsb_read
                0x0000000000000000       0x38 arch/arm/mach-sunxi/built-in.o
 .text.clock_set_pll3
                0x0000000000000000       0x38 arch/arm/mach-sunxi/built-in.o
 .text.clock_set_pll3_factors
                0x0000000000000000       0x2c arch/arm/mach-sunxi/built-in.o
 .text.clock_set_pll5
                0x0000000000000000       0xac arch/arm/mach-sunxi/built-in.o
 .text.clock_set_pll10
                0x0000000000000000       0x44 arch/arm/mach-sunxi/built-in.o
 .text.clock_get_pll3
                0x0000000000000000       0x2c arch/arm/mach-sunxi/built-in.o
 .text.clock_get_mipi_pll
                0x0000000000000000       0x40 arch/arm/mach-sunxi/built-in.o
 .text.clock_set_de_mod_clock
                0x0000000000000000       0x30 arch/arm/mach-sunxi/built-in.o
 .data          0x0000000000000000       0x18 arch/arm/mach-sunxi/built-in.o
 .bss           0x0000000000000000        0x0 arch/arm/mach-sunxi/built-in.o
 .bss.initial_usb_scan_delay
                0x0000000000000000        0x4 arch/arm/mach-sunxi/built-in.o
 .text          0x0000000000000000        0x0 board/sunxi/built-in.o
 .text.g_dnl_board_usb_cable_connected
                0x0000000000000000        0x6 board/sunxi/built-in.o
 .data          0x0000000000000000        0x0 board/sunxi/built-in.o
 .bss           0x0000000000000000        0x0 board/sunxi/built-in.o
 .text          0x0000000000000000        0x0 cmd/built-in.o
 .text.bootz_setup
                0x0000000000000000       0x14 cmd/built-in.o
 .text.sunxi_name_to_gpio
                0x0000000000000000        0x8 cmd/built-in.o
 .text.i2c_init_board
                0x0000000000000000        0x2 cmd/built-in.o
 .data          0x0000000000000000        0x0 cmd/built-in.o
 .bss           0x0000000000000000        0x0 cmd/built-in.o
 .text          0x0000000000000000        0x0 common/built-in.o
 .text.hash_finish_crc32
                0x0000000000000000       0x1c common/built-in.o
 .text.hash_update_crc32
                0x0000000000000000       0x14 common/built-in.o
 .text.hash_init_crc32
                0x0000000000000000       0x14 common/built-in.o
 .text.hash_lookup_algo
                0x0000000000000000       0x1c common/built-in.o
 .text.hash_progressive_lookup_algo
                0x0000000000000000       0x20 common/built-in.o
 .text.hash_parse_string
                0x0000000000000000       0x3a common/built-in.o
 .text.hash_block
                0x0000000000000000       0x3c common/built-in.o
 .text.unset_local_var
                0x0000000000000000       0x60 common/built-in.o
 .text.red_led_off
                0x0000000000000000        0x2 common/built-in.o
 .text.green_led_on
                0x0000000000000000        0x2 common/built-in.o
 .text.green_led_off
                0x0000000000000000        0x2 common/built-in.o
 .text.yellow_led_on
                0x0000000000000000        0x2 common/built-in.o
 .text.yellow_led_off
                0x0000000000000000        0x2 common/built-in.o
 .text.blue_led_on
                0x0000000000000000        0x2 common/built-in.o
 .text.blue_led_off
                0x0000000000000000        0x2 common/built-in.o
 .text.arch_reserve_stacks
                0x0000000000000000        0x4 common/built-in.o
 .text.board_flash_wp_on
                0x0000000000000000        0x4 common/built-in.o
 .text.fixup_cpu
                0x0000000000000000        0x4 common/built-in.o
 .text.nanopi_read_gpio
                0x0000000000000000       0x74 common/built-in.o
 .text.nanopi_read_extra_gpio
                0x0000000000000000       0xa4 common/built-in.o
 .text.fdt_read_prop
                0x0000000000000000       0x3c common/built-in.o
 .text.fdt_getprop_u32_default_node
                0x0000000000000000       0x24 common/built-in.o
 .text.fdt_getprop_u32_default
                0x0000000000000000       0x24 common/built-in.o
 .text.do_fixup_by_path_u32
                0x0000000000000000       0x1a common/built-in.o
 .text.do_fixup_by_prop
                0x0000000000000000       0x5a common/built-in.o
 .text.do_fixup_by_prop_u32
                0x0000000000000000       0x24 common/built-in.o
 .text.do_fixup_by_compat
                0x0000000000000000       0x4e common/built-in.o
 .text.do_fixup_by_compat_u32
                0x0000000000000000       0x1a common/built-in.o
 .text.fdt_increase_size
                0x0000000000000000        0xc common/built-in.o
 .text.fdt_del_node_and_alias
                0x0000000000000000       0x30 common/built-in.o
 .text.fdt_node_offset_by_compat_reg
                0x0000000000000000       0x58 common/built-in.o
 .text.fdt_alloc_phandle
                0x0000000000000000       0x36 common/built-in.o
 .text.fdt_set_phandle
                0x0000000000000000       0x40 common/built-in.o
 .text.fdt_create_phandle
                0x0000000000000000       0x40 common/built-in.o
 .text.fdt_set_node_status
                0x0000000000000000       0xa0 common/built-in.o
 .text.fdt_set_status_by_alias
                0x0000000000000000       0x1c common/built-in.o
 .text.fdt_verify_alias_address
                0x0000000000000000       0x88 common/built-in.o
 .text.fdt_get_base_address
                0x0000000000000000       0x28 common/built-in.o
 .text.fdt_read_range
                0x0000000000000000       0xcc common/built-in.o
 .text.fdt_setup_simplefb_node
                0x0000000000000000      0x164 common/built-in.o
 .text.fdt_fixup_display
                0x0000000000000000       0x88 common/built-in.o
 .text.mdio_alloc
                0x0000000000000000       0x1c common/built-in.o
 .text.mdio_free
                0x0000000000000000        0x4 common/built-in.o
 .text.mdio_register
                0x0000000000000000       0x54 common/built-in.o
 .text.mdio_register_seq
                0x0000000000000000       0x24 common/built-in.o
 .text.mdio_unregister
                0x0000000000000000       0x24 common/built-in.o
 .text.mdio_list_devices
                0x0000000000000000       0x68 common/built-in.o
 .text.mdio_get_current_dev
                0x0000000000000000        0xc common/built-in.o
 .text.mdio_phydev_for_ethname
                0x0000000000000000       0x54 common/built-in.o
 .text.miiphy_reset
                0x0000000000000000       0x74 common/built-in.o
 .text.usb_submit_int_msg
                0x0000000000000000        0x4 common/built-in.o
 .text.usb_get_report
                0x0000000000000000       0x3a common/built-in.o
 .text.usb_get_class_descriptor
                0x0000000000000000       0x3a common/built-in.o
 .text.board_usb_init
                0x0000000000000000        0x4 common/built-in.o
 .text.board_usb_cleanup
                0x0000000000000000        0x4 common/built-in.o
 .text.usb_find_usb2_hub_address_port
                0x0000000000000000       0x4c common/built-in.o
 .text.usb_hub_probe
                0x0000000000000000       0x3c common/built-in.o
 .text.iomux_printdevs
                0x0000000000000000       0x40 common/built-in.o
 .text.edid_check_checksum
                0x0000000000000000       0x1e common/built-in.o
 .text.edid_get_ranges
                0x0000000000000000       0x5c common/built-in.o
 .text.edid_get_timing
                0x0000000000000000      0x1fe common/built-in.o
 .text.splash_screen_prepare
                0x0000000000000000        0x4 common/built-in.o
 .text.menu_default_choice
                0x0000000000000000       0x12 common/built-in.o
 .text.overwrite_console
                0x0000000000000000        0x4 common/built-in.o
 .text.cli_simple_parse_line
                0x0000000000000000       0x50 common/built-in.o
 .text.cli_simple_run_command
                0x0000000000000000       0xc8 common/built-in.o
 .text.cli_simple_loop
                0x0000000000000000       0x54 common/built-in.o
 .text.cli_simple_run_command_list
                0x0000000000000000       0x3a common/built-in.o
 .text.fgetc    0x0000000000000000       0x28 common/built-in.o
 .text.ftstc    0x0000000000000000        0xe common/built-in.o
 .text.fputc    0x0000000000000000        0xa common/built-in.o
 .text.fprintf  0x0000000000000000       0x36 common/built-in.o
 .text.confirm_yesno
                0x0000000000000000       0x84 common/built-in.o
 .text.console_announce_r
                0x0000000000000000        0x4 common/built-in.o
 .text.valloc   0x0000000000000000        0xa common/built-in.o
 .text.pvalloc  0x0000000000000000       0x14 common/built-in.o
 .text.cfree    0x0000000000000000        0x4 common/built-in.o
 .text.malloc_usable_size
                0x0000000000000000       0x2a common/built-in.o
 .text.mallopt  0x0000000000000000       0x38 common/built-in.o
 .text.memalign_simple
                0x0000000000000000       0x32 common/built-in.o
 .text.genimg_get_short_name
                0x0000000000000000       0x14 common/built-in.o
 .text.genimg_get_cat_name
                0x0000000000000000       0x38 common/built-in.o
 .text.genimg_get_cat_short_name
                0x0000000000000000       0x38 common/built-in.o
 .text.genimg_get_cat_count
                0x0000000000000000       0x10 common/built-in.o
 .text.genimg_get_cat_desc
                0x0000000000000000       0x10 common/built-in.o
 .text.genimg_get_type_short_name
                0x0000000000000000        0xc common/built-in.o
 .text.genimg_get_comp_short_name
                0x0000000000000000        0xc common/built-in.o
 .text.genimg_get_os_short_name
                0x0000000000000000        0xc common/built-in.o
 .text.genimg_get_arch_short_name
                0x0000000000000000        0xc common/built-in.o
 .text.get_table_entry_id
                0x0000000000000000       0x26 common/built-in.o
 .text.genimg_get_os_id
                0x0000000000000000       0x14 common/built-in.o
 .text.genimg_get_arch_id
                0x0000000000000000       0x14 common/built-in.o
 .text.genimg_get_type_id
                0x0000000000000000       0x14 common/built-in.o
 .text.genimg_get_comp_id
                0x0000000000000000       0x14 common/built-in.o
 .text.stdio_deregister
                0x0000000000000000       0x1a common/built-in.o
 .text.stdio_init
                0x0000000000000000        0xe common/built-in.o
 .text.run_command_repeatable
                0x0000000000000000       0x12 common/built-in.o
 .rodata.unknown_str.8583
                0x0000000000000000        0x9 common/built-in.o
 .rodata.table_info
                0x0000000000000000       0x30 common/built-in.o
 .data          0x0000000000000000        0x0 common/built-in.o
 .data.hash_algo
                0x0000000000000000       0x1c common/built-in.o
 .data.mmap_threshold
                0x0000000000000000        0x4 common/built-in.o
 .bss           0x0000000000000000        0x0 common/built-in.o
 .bss.lastcommand.7108
                0x0000000000000000      0x401 common/built-in.o
 .bss.n_mmaps_max
                0x0000000000000000        0x4 common/built-in.o
 .bss.save_addr
                0x0000000000000000        0x4 common/built-in.o
 .bss.msg.8584  0x0000000000000000       0x1e common/built-in.o
 .bss.save_size
                0x0000000000000000        0x4 common/built-in.o
 .text          0x0000000000000000        0x0 disk/built-in.o
 .text.part_get_info_by_name_type
                0x0000000000000000       0x74 disk/built-in.o
 .text.part_get_info_by_name
                0x0000000000000000        0x8 disk/built-in.o
 .text.is_valid_dos_buf
                0x0000000000000000       0x10 disk/built-in.o
 .text.write_mbr_partition
                0x0000000000000000       0x44 disk/built-in.o
 .text.is_valid_gpt_buf
                0x0000000000000000       0x4e disk/built-in.o
 .text.write_mbr_and_gpt_partitions
                0x0000000000000000      0x32c disk/built-in.o
 .rodata.__func__.7056
                0x0000000000000000       0x14 disk/built-in.o
 .rodata.__func__.8417
                0x0000000000000000       0x1d disk/built-in.o
 .data          0x0000000000000000        0x0 disk/built-in.o
 .bss           0x0000000000000000        0x0 disk/built-in.o
 .text          0x0000000000000000        0x0 drivers/built-in.o
 .text._device_find_global_by_of_offset
                0x0000000000000000       0x2c drivers/built-in.o
 .text.device_find_child_by_seq
                0x0000000000000000       0x36 drivers/built-in.o
 .text.device_get_child_by_seq
                0x0000000000000000       0x3c drivers/built-in.o
 .text.device_find_child_by_of_offset
                0x0000000000000000       0x2a drivers/built-in.o
 .text.device_get_child_by_of_offset
                0x0000000000000000       0x20 drivers/built-in.o
 .text.device_get_global_by_of_offset
                0x0000000000000000       0x26 drivers/built-in.o
 .text.dev_get_driver_ops
                0x0000000000000000        0x8 drivers/built-in.o
 .text.dev_get_uclass_name
                0x0000000000000000        0xa drivers/built-in.o
 .text.device_has_children
                0x0000000000000000        0xe drivers/built-in.o
 .text.device_set_name_alloced
                0x0000000000000000        0xa drivers/built-in.o
 .text.device_set_name
                0x0000000000000000       0x20 drivers/built-in.o
 .text.device_is_compatible
                0x0000000000000000       0x18 drivers/built-in.o
 .text.of_machine_is_compatible
                0x0000000000000000       0x16 drivers/built-in.o
 .text.devfdt_get_addr_size_index
                0x0000000000000000       0x2c drivers/built-in.o
 .text.devfdt_get_addr_name
                0x0000000000000000       0x28 drivers/built-in.o
 .text.devfdt_map_physmem
                0x0000000000000000       0x10 drivers/built-in.o
 .text.dm_fixup_for_gd_move
                0x0000000000000000       0x14 drivers/built-in.o
 .text.dm_set_translation_offset
                0x0000000000000000       0x10 drivers/built-in.o
 .text.dm_uninit
                0x0000000000000000       0x18 drivers/built-in.o
 .text.uclass_destroy
                0x0000000000000000       0x52 drivers/built-in.o
 .text.uclass_get_name
                0x0000000000000000       0x1a drivers/built-in.o
 .text.uclass_find_device_by_name
                0x0000000000000000       0x50 drivers/built-in.o
 .text.uclass_find_device_by_ofnode
                0x0000000000000000       0x40 drivers/built-in.o
 .text.uclass_get_device_by_driver
                0x0000000000000000       0x3c drivers/built-in.o
 .text.uclass_get_device_by_name
                0x0000000000000000       0x1c drivers/built-in.o
 .text.uclass_get_device_by_ofnode
                0x0000000000000000       0x1c drivers/built-in.o
 .text.uclass_get_device_by_phandle
                0x0000000000000000       0x68 drivers/built-in.o
 .text.uclass_first_device_err
                0x0000000000000000       0x18 drivers/built-in.o
 .text.uclass_first_device_check
                0x0000000000000000       0x1c drivers/built-in.o
 .text.uclass_next_device_check
                0x0000000000000000       0x18 drivers/built-in.o
 .text.list_count_items
                0x0000000000000000       0x12 drivers/built-in.o
 .text.simple_bus_translate
                0x0000000000000000       0x20 drivers/built-in.o
 .text.of_read_fmap_entry
                0x0000000000000000       0x80 drivers/built-in.o
 .text.ofnode_read_s32_default
                0x0000000000000000       0x16 drivers/built-in.o
 .text.ofnode_read_string
                0x0000000000000000       0x34 drivers/built-in.o
 .text.ofnode_find_subnode
                0x0000000000000000       0x12 drivers/built-in.o
 .text.ofnode_first_subnode
                0x0000000000000000        0xe drivers/built-in.o
 .text.ofnode_next_subnode
                0x0000000000000000        0xe drivers/built-in.o
 .text.ofnode_read_size
                0x0000000000000000       0x22 drivers/built-in.o
 .text.decode_timing_property
                0x0000000000000000       0x40 drivers/built-in.o
 .text.ofnode_get_addr_index
                0x0000000000000000        0xe drivers/built-in.o
 .text.ofnode_get_addr
                0x0000000000000000        0x6 drivers/built-in.o
 .text.ofnode_stringlist_search
                0x0000000000000000       0x28 drivers/built-in.o
 .text.ofnode_read_string_index
                0x0000000000000000       0x30 drivers/built-in.o
 .text.ofnode_read_string_count
                0x0000000000000000        0xe drivers/built-in.o
 .text.ofnode_parse_phandle_with_args
                0x0000000000000000       0x42 drivers/built-in.o
 .text.ofnode_count_phandle_with_args
                0x0000000000000000       0x24 drivers/built-in.o
 .text.ofnode_get_chosen_prop
                0x0000000000000000       0x18 drivers/built-in.o
 .text.ofnode_get_chosen_node
                0x0000000000000000       0x14 drivers/built-in.o
 .text.ofnode_read_bool
                0x0000000000000000       0x10 drivers/built-in.o
 .text.ofnode_decode_display_timing
                0x0000000000000000      0x1d8 drivers/built-in.o
 .text.ofnode_is_available
                0x0000000000000000       0x14 drivers/built-in.o
 .text.ofnode_get_addr_size
                0x0000000000000000       0x18 drivers/built-in.o
 .text.ofnode_read_u8_array_ptr
                0x0000000000000000       0x18 drivers/built-in.o
 .text.ofnode_read_pci_addr
                0x0000000000000000       0x6c drivers/built-in.o
 .text.ofnode_read_addr_cells
                0x0000000000000000        0xa drivers/built-in.o
 .text.ofnode_read_size_cells
                0x0000000000000000        0xa drivers/built-in.o
 .text.ofnode_read_simple_addr_cells
                0x0000000000000000        0xa drivers/built-in.o
 .text.ofnode_read_simple_size_cells
                0x0000000000000000        0xa drivers/built-in.o
 .text.ofnode_pre_reloc
                0x0000000000000000       0x34 drivers/built-in.o
 .text.ofnode_read_resource
                0x0000000000000000       0x40 drivers/built-in.o
 .text.ofnode_read_resource_byname
                0x0000000000000000       0x28 drivers/built-in.o
 .text.board_mmc_init
                0x0000000000000000        0x6 drivers/built-in.o
 .text.mmc_set_preinit
                0x0000000000000000        0x6 drivers/built-in.o
 .text.mmc_destroy
                0x0000000000000000        0x4 drivers/built-in.o
 .text.display_read_edid
                0x0000000000000000       0x12 drivers/built-in.o
 .text.display_enable
                0x0000000000000000       0x2a drivers/built-in.o
 .text.display_read_timing
                0x0000000000000000       0x3c drivers/built-in.o
 .text.display_in_use
                0x0000000000000000        0xa drivers/built-in.o
 .text._input_send_keycodes
                0x0000000000000000      0x2cc drivers/built-in.o
 .text.input_send_keycodes
                0x0000000000000000        0x6 drivers/built-in.o
 .text.input_add_keycode
                0x0000000000000000       0x56 drivers/built-in.o
 .text.input_add_table
                0x0000000000000000       0x2c drivers/built-in.o
 .text.input_set_delays
                0x0000000000000000        0xa drivers/built-in.o
 .text.input_allow_repeats
                0x0000000000000000        0x6 drivers/built-in.o
 .text.input_leds_changed
                0x0000000000000000        0xe drivers/built-in.o
 .text.input_add_tables
                0x0000000000000000       0x54 drivers/built-in.o
 .text.input_stdio_register
                0x0000000000000000       0x34 drivers/built-in.o
 .text.create_keymap
                0x0000000000000000       0x5a drivers/built-in.o
 .text.key_matrix_decode
                0x0000000000000000       0x9e drivers/built-in.o
 .text.key_matrix_decode_fdt
                0x0000000000000000       0x6c drivers/built-in.o
 .text.key_matrix_init
                0x0000000000000000       0x20 drivers/built-in.o
 .rodata.kbd_to_ansi364
                0x0000000000000000       0x20 drivers/built-in.o
 .rodata.kbd_plain_xlate
                0x0000000000000000       0x64 drivers/built-in.o
 .rodata.kbd_plain_xlate_german
                0x0000000000000000       0x84 drivers/built-in.o
 .rodata.CSWTCH.32
                0x0000000000000000        0xd drivers/built-in.o
 .data          0x0000000000000000        0x0 drivers/built-in.o
 .data.kbd_ctrl_xlate
                0x0000000000000000       0x64 drivers/built-in.o
 .data.kbd_right_alt_xlate_german
                0x0000000000000000       0x58 drivers/built-in.o
 .data.kbd_shift_xlate_german
                0x0000000000000000       0x84 drivers/built-in.o
 .data.kbd_entry
                0x0000000000000000       0x8c drivers/built-in.o
 .data.kbd_shift_xlate
                0x0000000000000000       0x64 drivers/built-in.o
 .bss           0x0000000000000000        0x0 drivers/built-in.o
 .text          0x0000000000000000        0x0 drivers/gpio/built-in.o
 .text.gpio_xlate_offs_flags
                0x0000000000000000       0x26 drivers/gpio/built-in.o
 .text.dm_gpio_requestf
                0x0000000000000000       0x2a drivers/gpio/built-in.o
 .text.gpio_requestf
                0x0000000000000000       0x2a drivers/gpio/built-in.o
 .text.dm_gpio_set_value
                0x0000000000000000       0x34 drivers/gpio/built-in.o
 .text.dm_gpio_get_open_drain
                0x0000000000000000       0x2c drivers/gpio/built-in.o
 .text.dm_gpio_set_open_drain
                0x0000000000000000       0x2c drivers/gpio/built-in.o
 .text.dm_gpio_set_dir_flags
                0x0000000000000000       0x4c drivers/gpio/built-in.o
 .text.gpio_request_tail
                0x0000000000000000       0x84 drivers/gpio/built-in.o
 .text.dm_gpio_set_dir
                0x0000000000000000        0x6 drivers/gpio/built-in.o
 .text.gpio_set_value
                0x0000000000000000       0x18 drivers/gpio/built-in.o
 .text.gpio_claim_vector
                0x0000000000000000       0x58 drivers/gpio/built-in.o
 .text.gpio_get_values_as_int
                0x0000000000000000       0x2c drivers/gpio/built-in.o
 .text.dm_gpio_get_values_as_int
                0x0000000000000000       0x32 drivers/gpio/built-in.o
 .text.gpio_request_by_name_nodev
                0x0000000000000000       0x44 drivers/gpio/built-in.o
 .text.gpio_request_by_name
                0x0000000000000000       0x44 drivers/gpio/built-in.o
 .text.gpio_get_list_count
                0x0000000000000000       0x28 drivers/gpio/built-in.o
 .text.dm_gpio_free
                0x0000000000000000        0x8 drivers/gpio/built-in.o
 .text.gpio_free_list
                0x0000000000000000       0x28 drivers/gpio/built-in.o
 .text.gpio_free_list_nodev
                0x0000000000000000        0xc drivers/gpio/built-in.o
 .text.gpio_request_list_by_name_nodev
                0x0000000000000000       0x74 drivers/gpio/built-in.o
 .text.gpio_request_list_by_name
                0x0000000000000000       0x10 drivers/gpio/built-in.o
 .text.gpio_get_number
                0x0000000000000000       0x14 drivers/gpio/built-in.o
 .data          0x0000000000000000        0x0 drivers/gpio/built-in.o
 .bss           0x0000000000000000        0x0 drivers/gpio/built-in.o
 .text          0x0000000000000000        0x0 drivers/i2c/built-in.o
 .text.i2c_dump_msgs
                0x0000000000000000       0x64 drivers/i2c/built-in.o
 .text.dm_i2c_xfer
                0x0000000000000000       0x22 drivers/i2c/built-in.o
 .text.dm_i2c_reg_read
                0x0000000000000000       0x1a drivers/i2c/built-in.o
 .text.dm_i2c_reg_write
                0x0000000000000000       0x16 drivers/i2c/built-in.o
 .text.calc_tick
                0x0000000000000000       0x14 drivers/i2c/built-in.o
 .text.mvtwsi_error
                0x0000000000000000       0x16 drivers/i2c/built-in.o
 .data          0x0000000000000000        0x0 drivers/i2c/built-in.o
 .bss           0x0000000000000000        0x0 drivers/i2c/built-in.o
 .text          0x0000000000000000        0x0 drivers/serial/built-in.o
 .text.ns16550_calc_divisor
                0x0000000000000000       0x10 drivers/serial/built-in.o
 .text.NS16550_reinit
                0x0000000000000000       0x38 drivers/serial/built-in.o
 .text.NS16550_putc
                0x0000000000000000       0x20 drivers/serial/built-in.o
 .text.NS16550_getc
                0x0000000000000000       0x1c drivers/serial/built-in.o
 .text.NS16550_tstc
                0x0000000000000000       0x10 drivers/serial/built-in.o
 .data          0x0000000000000000        0x0 drivers/serial/built-in.o
 .bss           0x0000000000000000        0x0 drivers/serial/built-in.o
 .text          0x0000000000000000        0x0 drivers/spi/built-in.o
 .text.spi_set_wordlen
                0x0000000000000000       0x20 drivers/spi/built-in.o
 .text.spi_do_alloc_slave
                0x0000000000000000       0x30 drivers/spi/built-in.o
 .rodata.str1.1
                0x0000000000000000       0x19 drivers/spi/built-in.o
 .data          0x0000000000000000        0x0 drivers/spi/built-in.o
 .bss           0x0000000000000000        0x0 drivers/spi/built-in.o
 .comment       0x0000000000000000       0x22 drivers/spi/built-in.o
 .note.GNU-stack
                0x0000000000000000        0x0 drivers/spi/built-in.o
 .ARM.attributes
                0x0000000000000000       0x2d drivers/spi/built-in.o
 .debug_aranges
                0x0000000000000000       0x28 drivers/spi/built-in.o
 .debug_info    0x0000000000000000      0x299 drivers/spi/built-in.o
 .debug_abbrev  0x0000000000000000      0x176 drivers/spi/built-in.o
 .debug_line    0x0000000000000000       0xe1 drivers/spi/built-in.o
 .debug_frame   0x0000000000000000       0x48 drivers/spi/built-in.o
 .debug_str     0x0000000000000000      0x34d drivers/spi/built-in.o
 .debug_loc     0x0000000000000000      0x10f drivers/spi/built-in.o
 .debug_ranges  0x0000000000000000       0x18 drivers/spi/built-in.o
 .text          0x0000000000000000        0x0 drivers/usb/common/built-in.o
 .text.usb_get_dr_mode
                0x0000000000000000       0x48 drivers/usb/common/built-in.o
 .rodata.str1.1
                0x0000000000000000       0x34 drivers/usb/common/built-in.o
 .rodata.usb_dr_modes
                0x0000000000000000       0x10 drivers/usb/common/built-in.o
 .data          0x0000000000000000        0x0 drivers/usb/common/built-in.o
 .bss           0x0000000000000000        0x0 drivers/usb/common/built-in.o
 .comment       0x0000000000000000       0x22 drivers/usb/common/built-in.o
 .note.GNU-stack
                0x0000000000000000        0x0 drivers/usb/common/built-in.o
 .ARM.attributes
                0x0000000000000000       0x2d drivers/usb/common/built-in.o
 .debug_aranges
                0x0000000000000000       0x20 drivers/usb/common/built-in.o
 .debug_info    0x0000000000000000      0x5f4 drivers/usb/common/built-in.o
 .debug_abbrev  0x0000000000000000      0x1bd drivers/usb/common/built-in.o
 .debug_line    0x0000000000000000      0x14c drivers/usb/common/built-in.o
 .debug_frame   0x0000000000000000       0x2c drivers/usb/common/built-in.o
 .debug_str     0x0000000000000000      0x625 drivers/usb/common/built-in.o
 .debug_loc     0x0000000000000000       0x9c drivers/usb/common/built-in.o
 .debug_ranges  0x0000000000000000       0x10 drivers/usb/common/built-in.o
 .text          0x0000000000000000        0x0 drivers/usb/gadget/built-in.o
 .text.usb_ep_autoconfig
                0x0000000000000000      0x120 drivers/usb/gadget/built-in.o
 .text.usb_ep_autoconfig_reset
                0x0000000000000000       0x24 drivers/usb/gadget/built-in.o
 .text.usb_descriptor_fillbuf
                0x0000000000000000       0x3a drivers/usb/gadget/built-in.o
 .text.usb_gadget_config_buf
                0x0000000000000000       0x5a drivers/usb/gadget/built-in.o
 .text.usb_gadget_get_string
                0x0000000000000000       0xec drivers/usb/gadget/built-in.o
 .data          0x0000000000000000        0x0 drivers/usb/gadget/built-in.o
 .bss           0x0000000000000000        0x0 drivers/usb/gadget/built-in.o
 .bss.epnum     0x0000000000000000        0x4 drivers/usb/gadget/built-in.o
 .comment       0x0000000000000000       0x66 drivers/usb/gadget/built-in.o
 .note.GNU-stack
                0x0000000000000000        0x0 drivers/usb/gadget/built-in.o
 .ARM.attributes
                0x0000000000000000       0x2d drivers/usb/gadget/built-in.o
 .debug_aranges
                0x0000000000000000       0x70 drivers/usb/gadget/built-in.o
 .debug_info    0x0000000000000000     0x13be drivers/usb/gadget/built-in.o
 .debug_abbrev  0x0000000000000000      0x6b7 drivers/usb/gadget/built-in.o
 .debug_line    0x0000000000000000      0x482 drivers/usb/gadget/built-in.o
 .debug_frame   0x0000000000000000       0xc4 drivers/usb/gadget/built-in.o
 .debug_str     0x0000000000000000     0x1027 drivers/usb/gadget/built-in.o
 .debug_loc     0x0000000000000000      0x85b drivers/usb/gadget/built-in.o
 .debug_ranges  0x0000000000000000       0xf0 drivers/usb/gadget/built-in.o
 .text          0x0000000000000000        0x0 drivers/usb/host/built-in.o
 .text.usb_setup_ehci_gadget
                0x0000000000000000       0x3e drivers/usb/host/built-in.o
 .text.usb_detect_change
                0x0000000000000000       0x6a drivers/usb/host/built-in.o
 .data          0x0000000000000000        0x0 drivers/usb/host/built-in.o
 .bss           0x0000000000000000        0x0 drivers/usb/host/built-in.o
 .text          0x0000000000000000        0x0 env/built-in.o
 .text.env_flags_parse_varaccess_from_binflags
                0x0000000000000000       0x30 env/built-in.o
 .data          0x0000000000000000        0x0 env/built-in.o
 .bss           0x0000000000000000        0x0 env/built-in.o
 .text          0x0000000000000000        0x0 fs/built-in.o
 .text.fs_uuid  0x0000000000000000       0x1c fs/built-in.o
 .text.do_fs_uuid
                0x0000000000000000       0x5c fs/built-in.o
 .text.fat_register_device
                0x0000000000000000       0x54 fs/built-in.o
 .text.file_fat_read
                0x0000000000000000       0x22 fs/built-in.o
 .data          0x0000000000000000        0x0 fs/built-in.o
 .bss           0x0000000000000000        0x0 fs/built-in.o
 .bss.ext4fs_symlinknest
                0x0000000000000000        0x4 fs/built-in.o
 .bss.g_parent_inode
                0x0000000000000000        0x4 fs/built-in.o
 .text          0x0000000000000000        0x0 lib/built-in.o
 .text.invalidate_icache_all
                0x0000000000000000        0x2 lib/built-in.o
 .text.__efi_nesting
                0x0000000000000000        0xc lib/built-in.o
 .text.efi_add_runtime_mmio
                0x0000000000000000       0x64 lib/built-in.o
 .text.efi_dp_str
                0x0000000000000000        0x4 lib/built-in.o
 .text.efi_dp_append
                0x0000000000000000       0x58 lib/built-in.o
 .text.efi_dp_append_node
                0x0000000000000000       0x80 lib/built-in.o
 .text.efi_dp_from_dev
                0x0000000000000000       0x28 lib/built-in.o
 .text.utf16_strcpy
                0x0000000000000000       0x10 lib/built-in.o
 .text.utf16_strdup
                0x0000000000000000       0x24 lib/built-in.o
 .text.crc7     0x0000000000000000       0x1c lib/built-in.o
 .text.crc8     0x0000000000000000       0x34 lib/built-in.o
 .text.lmb_dump_all
                0x0000000000000000        0x2 lib/built-in.o
 .text.lmb_is_reserved
                0x0000000000000000       0x28 lib/built-in.o
 .text.arch_lmb_reserve
                0x0000000000000000        0x2 lib/built-in.o
 .text.ldiv     0x0000000000000000       0x2e lib/built-in.o
 .text.rc4_encode
                0x0000000000000000       0x8a lib/built-in.o
 .text.inflateInit_
                0x0000000000000000       0x12 lib/built-in.o
 .text._fdt_sw_check_header
                0x0000000000000000       0x14 lib/built-in.o
 .text._fdt_grab_space
                0x0000000000000000       0x30 lib/built-in.o
 .text.fdt_create
                0x0000000000000000       0x40 lib/built-in.o
 .text.fdt_resize
                0x0000000000000000       0x72 lib/built-in.o
 .text.fdt_add_reservemap_entry
                0x0000000000000000       0x60 lib/built-in.o
 .text.fdt_finish_reservemap
                0x0000000000000000       0x14 lib/built-in.o
 .text.fdt_begin_node
                0x0000000000000000       0x42 lib/built-in.o
 .text.fdt_end_node
                0x0000000000000000       0x26 lib/built-in.o
 .text.fdt_property_placeholder
                0x0000000000000000       0xa8 lib/built-in.o
 .text.fdt_property
                0x0000000000000000       0x22 lib/built-in.o
 .text.fdt_finish
                0x0000000000000000       0x90 lib/built-in.o
 .text.fdt_create_empty_tree
                0x0000000000000000       0x44 lib/built-in.o
 .text.fdt_get_phandle
                0x0000000000000000       0x40 lib/built-in.o
 .text.fdt_get_max_phandle
                0x0000000000000000       0x44 lib/built-in.o
 .text.fdt_get_path
                0x0000000000000000       0xc0 lib/built-in.o
 .text.fdt_node_offset_by_prop_value
                0x0000000000000000       0x52 lib/built-in.o
 .text.fdt_node_offset_by_phandle
                0x0000000000000000       0x44 lib/built-in.o
 .text.fdt_stringlist_contains
                0x0000000000000000       0x48 lib/built-in.o
 .text.fdt_stringlist_count
                0x0000000000000000       0x38 lib/built-in.o
 .text.fdt_stringlist_search
                0x0000000000000000       0x66 lib/built-in.o
 .text.fdt_stringlist_get
                0x0000000000000000       0x5a lib/built-in.o
 .text.fdt_node_check_compatible
                0x0000000000000000       0x28 lib/built-in.o
 .text.fdt_node_offset_by_compatible
                0x0000000000000000       0x3c lib/built-in.o
 .text.fdt_set_name
                0x0000000000000000       0x54 lib/built-in.o
 .text.fdt_pack
                0x0000000000000000       0x34 lib/built-in.o
 .text.fdt_remove_unused_strings
                0x0000000000000000       0x6a lib/built-in.o
 .text.fdt_setprop_inplace_namelen_partial
                0x0000000000000000       0x32 lib/built-in.o
 .text.fdt_setprop_inplace
                0x0000000000000000       0x48 lib/built-in.o
 .text.fdt_nop_property
                0x0000000000000000       0x2a lib/built-in.o
 .text.fdt_nop_node
                0x0000000000000000       0x32 lib/built-in.o
 .text.fdt_find_regions
                0x0000000000000000      0x224 lib/built-in.o
 .text.fdt_add_region
                0x0000000000000000       0x58 lib/built-in.o
 .text.fdt_add_alias_regions
                0x0000000000000000      0x118 lib/built-in.o
 .text.fdt_next_region
                0x0000000000000000      0x35c lib/built-in.o
 .text.fdt_first_region
                0x0000000000000000       0x3c lib/built-in.o
 .text.fdtdec_get_uint
                0x0000000000000000       0x1e lib/built-in.o
 .text.fdtdec_get_compatible
                0x0000000000000000        0xc lib/built-in.o
 .text.fdtdec_get_uint64
                0x0000000000000000       0x26 lib/built-in.o
 .text.fdtdec_lookup
                0x0000000000000000       0x2c lib/built-in.o
 .text.fdtdec_next_compatible
                0x0000000000000000       0x10 lib/built-in.o
 .text.fdtdec_next_compatible_subnode
                0x0000000000000000       0x40 lib/built-in.o
 .text.fdtdec_next_alias
                0x0000000000000000       0x5c lib/built-in.o
 .text.fdtdec_add_aliases_for_id
                0x0000000000000000      0x17c lib/built-in.o
 .text.fdtdec_find_aliases_for_id
                0x0000000000000000       0x2a lib/built-in.o
 .text.fdtdec_check_fdt
                0x0000000000000000        0xa lib/built-in.o
 .text.fdtdec_lookup_phandle
                0x0000000000000000       0x20 lib/built-in.o
 .text.decode_timing_property
                0x0000000000000000       0x4a lib/built-in.o
 .text.fdtdec_get_int_array_count
                0x0000000000000000       0x38 lib/built-in.o
 .text.fdtdec_locate_array
                0x0000000000000000       0x18 lib/built-in.o
 .text.fdtdec_get_bool
                0x0000000000000000       0x14 lib/built-in.o
 .text.fdtdec_parse_phandle_with_args
                0x0000000000000000       0xce lib/built-in.o
 .text.fdtdec_get_child_count
                0x0000000000000000       0x20 lib/built-in.o
 .text.fdtdec_get_byte_array
                0x0000000000000000       0x22 lib/built-in.o
 .text.fdtdec_locate_byte_array
                0x0000000000000000       0x16 lib/built-in.o
 .text.fdtdec_get_config_bool
                0x0000000000000000       0x2c lib/built-in.o
 .text.fdtdec_decode_region
                0x0000000000000000       0x2c lib/built-in.o
 .text.fdtdec_get_number
                0x0000000000000000       0x24 lib/built-in.o
 .text.fdtdec_get_addr_size_fixed
                0x0000000000000000       0x70 lib/built-in.o
 .text.fdtdec_get_addr_size_auto_parent
                0x0000000000000000       0x46 lib/built-in.o
 .text.fdtdec_get_addr_size_auto_noparent
                0x0000000000000000       0x34 lib/built-in.o
 .text.fdtdec_get_addr_size
                0x0000000000000000       0x1c lib/built-in.o
 .text.fdtdec_get_addr
                0x0000000000000000        0x6 lib/built-in.o
 .text.fdt_get_resource
                0x0000000000000000       0x90 lib/built-in.o
 .text.fdt_get_named_resource
                0x0000000000000000       0x2c lib/built-in.o
 .text.fdtdec_decode_memory_region
                0x0000000000000000       0xb8 lib/built-in.o
 .text.fdtdec_decode_display_timing
                0x0000000000000000      0x1ec lib/built-in.o
 .text.fdtdec_setup_memory_size
                0x0000000000000000       0x44 lib/built-in.o
 .text.fdtdec_setup_memory_banksize
                0x0000000000000000       0x54 lib/built-in.o
 .text.print_freq
                0x0000000000000000      0x120 lib/built-in.o
 .text.crc32_wd_buf
                0x0000000000000000       0x26 lib/built-in.o
 .text.div_s64_rem
                0x0000000000000000       0xba lib/built-in.o
 .text.div64_u64_rem
                0x0000000000000000      0x114 lib/built-in.o
 .text.div64_u64
                0x0000000000000000       0xec lib/built-in.o
 .text.div64_s64
                0x0000000000000000       0x32 lib/built-in.o
 .text.iter_div_u64_rem
                0x0000000000000000       0x28 lib/built-in.o
 .text.copy_from_user
                0x0000000000000000        0xa lib/built-in.o
 .text.kmalloc  0x0000000000000000       0x20 lib/built-in.o
 .text.get_mem  0x0000000000000000       0x10 lib/built-in.o
 .text.kmem_cache_alloc
                0x0000000000000000        0xa lib/built-in.o
 .text.membuff_purge
                0x0000000000000000        0x8 lib/built-in.o
 .text.membuff_putraw
                0x0000000000000000       0x6a lib/built-in.o
 .text.membuff_putbyte
                0x0000000000000000       0x1c lib/built-in.o
 .text.membuff_getraw
                0x0000000000000000       0x52 lib/built-in.o
 .text.membuff_getbyte
                0x0000000000000000       0x24 lib/built-in.o
 .text.membuff_peekbyte
                0x0000000000000000       0x22 lib/built-in.o
 .text.membuff_get
                0x0000000000000000       0x4c lib/built-in.o
 .text.membuff_put
                0x0000000000000000       0x44 lib/built-in.o
 .text.membuff_isempty
                0x0000000000000000        0xc lib/built-in.o
 .text.membuff_avail
                0x0000000000000000       0x34 lib/built-in.o
 .text.membuff_size
                0x0000000000000000        0x6 lib/built-in.o
 .text.membuff_makecontig
                0x0000000000000000       0x44 lib/built-in.o
 .text.membuff_free
                0x0000000000000000       0x1a lib/built-in.o
 .text.membuff_readline
                0x0000000000000000       0x6c lib/built-in.o
 .text.membuff_extend_by
                0x0000000000000000       0x7a lib/built-in.o
 .text.membuff_init
                0x0000000000000000        0xc lib/built-in.o
 .text.membuff_new
                0x0000000000000000       0x22 lib/built-in.o
 .text.membuff_uninit
                0x0000000000000000        0xc lib/built-in.o
 .text.membuff_dispose
                0x0000000000000000       0x14 lib/built-in.o
 .text.strcasecmp
                0x0000000000000000        0x8 lib/built-in.o
 .text.strchrnul
                0x0000000000000000       0x14 lib/built-in.o
 .text.strcspn  0x0000000000000000       0x1e lib/built-in.o
 .text.strspn   0x0000000000000000       0x1e lib/built-in.o
 .text.strtok   0x0000000000000000       0x48 lib/built-in.o
 .text.strswab  0x0000000000000000       0x26 lib/built-in.o
 .text.memchr_inv
                0x0000000000000000       0xa6 lib/built-in.o
 .text.table_compute_checksum
                0x0000000000000000       0x1a lib/built-in.o
 .text.get_ticks
                0x0000000000000000       0x32 lib/built-in.o
 .text.timer_init
                0x0000000000000000        0x4 lib/built-in.o
 .text.get_timer
                0x0000000000000000       0x10 lib/built-in.o
 .text.__udelay
                0x0000000000000000       0x88 lib/built-in.o
 .text.srand    0x0000000000000000        0xc lib/built-in.o
 .text.vsnprintf
                0x0000000000000000        0x4 lib/built-in.o
 .text.scnprintf
                0x0000000000000000       0x1a lib/built-in.o
 .text.__assert_fail
                0x0000000000000000       0x10 lib/built-in.o
 .text.print_grouped_ull
                0x0000000000000000       0x5c lib/built-in.o
 .text.str2off  0x0000000000000000       0x28 lib/built-in.o
 .text.str2long
                0x0000000000000000       0x26 lib/built-in.o
 .text.strmhz   0x0000000000000000       0x50 lib/built-in.o
 .rodata.crc7_syndrome_table
                0x0000000000000000      0x100 lib/built-in.o
 .rodata.z_errmsg
                0x0000000000000000       0x28 lib/built-in.o
 .rodata.compat_names
                0x0000000000000000       0xa0 lib/built-in.o
 .rodata.names.7208
                0x0000000000000000        0x3 lib/built-in.o
 .data          0x0000000000000000        0x0 lib/built-in.o
 .data.cur      0x0000000000000000        0x4 lib/built-in.o
 .data.current  0x0000000000000000        0x4 lib/built-in.o
 .bss           0x0000000000000000        0x0 lib/built-in.o
 .bss.___strtok
                0x0000000000000000        0x4 lib/built-in.o
 .text          0x0000000000000000        0x0 net/built-in.o
 .text.add_ip_checksums
                0x0000000000000000       0x2a net/built-in.o
 .text.eth_init_state_only
                0x0000000000000000       0x1e net/built-in.o
 .text.eth_is_active
                0x0000000000000000       0x20 net/built-in.o
 .text.net_get_udp_handler
                0x0000000000000000        0xc net/built-in.o
 .text.net_set_arp_handler
                0x0000000000000000       0x18 net/built-in.o
 .text.random_port
                0x0000000000000000       0x12 net/built-in.o
 .text.vlan_to_string
                0x0000000000000000       0x30 net/built-in.o
 .text.env_get_vlan
                0x0000000000000000        0xe net/built-in.o
 .data          0x0000000000000000        0x0 net/built-in.o
 .data.tftp_timeout_ms
                0x0000000000000000        0x4 net/built-in.o
 .bss           0x0000000000000000        0x0 net/built-in.o
 .text          0x0000000000000000        0x0 test/dm/built-in.o
 .data          0x0000000000000000        0x0 test/dm/built-in.o
 .bss           0x0000000000000000        0x0 test/dm/built-in.o
 .text          0x0000000000000000        0x0 arch/arm/lib/eabi_compat.o
 .data          0x0000000000000000        0x0 arch/arm/lib/eabi_compat.o
 .bss           0x0000000000000000        0x0 arch/arm/lib/eabi_compat.o
 .text.raise    0x0000000000000000       0x14 arch/arm/lib/eabi_compat.o
 .text.__aeabi_unwind_cpp_pr0
                0x0000000000000000        0x2 arch/arm/lib/eabi_compat.o
 .text.__aeabi_unwind_cpp_pr1
                0x0000000000000000        0x2 arch/arm/lib/eabi_compat.o
 .text.__aeabi_memcpy
                0x0000000000000000        0x4 arch/arm/lib/eabi_compat.o
 .text.__aeabi_memset
                0x0000000000000000        0xa arch/arm/lib/eabi_compat.o
 .rodata.str1.1
                0x0000000000000000       0x1b arch/arm/lib/eabi_compat.o
 .debug_info    0x0000000000000000      0x250 arch/arm/lib/eabi_compat.o
 .debug_abbrev  0x0000000000000000      0x141 arch/arm/lib/eabi_compat.o
 .debug_loc     0x0000000000000000      0x108 arch/arm/lib/eabi_compat.o
 .debug_aranges
                0x0000000000000000       0x40 arch/arm/lib/eabi_compat.o
 .debug_ranges  0x0000000000000000       0x30 arch/arm/lib/eabi_compat.o
 .debug_line    0x0000000000000000       0xf4 arch/arm/lib/eabi_compat.o
 .debug_str     0x0000000000000000      0x33c arch/arm/lib/eabi_compat.o
 .comment       0x0000000000000000       0x22 arch/arm/lib/eabi_compat.o
 .note.GNU-stack
                0x0000000000000000        0x0 arch/arm/lib/eabi_compat.o
 .debug_frame   0x0000000000000000       0x68 arch/arm/lib/eabi_compat.o
 .ARM.attributes
                0x0000000000000000       0x2d arch/arm/lib/eabi_compat.o
 .text          0x0000000000000000        0x0 arch/arm/lib/lib.a(ashldi3.o)
 .data          0x0000000000000000        0x0 arch/arm/lib/lib.a(ashldi3.o)
 .bss           0x0000000000000000        0x0 arch/arm/lib/lib.a(ashldi3.o)
 .text          0x0000000000000000        0x0 arch/arm/lib/lib.a(lib1funcs.o)
 .data          0x0000000000000000        0x0 arch/arm/lib/lib.a(lib1funcs.o)
 .bss           0x0000000000000000        0x0 arch/arm/lib/lib.a(lib1funcs.o)
 .text.__umodsi3
                0x0000000000000000       0xa0 arch/arm/lib/lib.a(lib1funcs.o)
 .text.__modsi3
                0x0000000000000000       0xb8 arch/arm/lib/lib.a(lib1funcs.o)
 .text          0x0000000000000000        0x0 arch/arm/lib/lib.a(lshrdi3.o)
 .data          0x0000000000000000        0x0 arch/arm/lib/lib.a(lshrdi3.o)
 .bss           0x0000000000000000        0x0 arch/arm/lib/lib.a(lshrdi3.o)
 .text          0x0000000000000000        0x0 arch/arm/lib/lib.a(div0.o)
 .data          0x0000000000000000        0x0 arch/arm/lib/lib.a(div0.o)
 .bss           0x0000000000000000        0x0 arch/arm/lib/lib.a(div0.o)

Memory Configuration

Name             Origin             Length             Attributes
*default*        0x0000000000000000 0xffffffffffffffff

Linker script and memory map

Address of section .text set to 0x4a000000
                0x0000000000000000                . = 0x0
                0x0000000000000000                . = ALIGN (0x4)

.text           0x000000004a000000    0x2a6c0
 *(.__image_copy_start)
 .__image_copy_start
                0x000000004a000000        0x0 arch/arm/lib/built-in.o
                0x000000004a000000                __image_copy_start
 *(.vectors)
 .vectors       0x000000004a000000      0x300 arch/arm/lib/built-in.o
                0x000000004a000000                _start
                0x000000004a000020                _undefined_instruction
                0x000000004a000024                _software_interrupt
                0x000000004a000028                _prefetch_abort
                0x000000004a00002c                _data_abort
                0x000000004a000030                _not_used
                0x000000004a000034                _irq
                0x000000004a000038                _fiq
                0x000000004a000040                IRQ_STACK_START_IN
 arch/arm/cpu/armv7/start.o(.text*)
 .text          0x000000004a000300       0xb0 arch/arm/cpu/armv7/start.o
                0x000000004a000300                reset
                0x000000004a000304                save_boot_params_ret
                0x000000004a000340                c_runtime_cpu_setup
                0x000000004a000350                save_boot_params
                0x000000004a000354                cpu_init_cp15
                0x000000004a0003a8                cpu_init_crit
 *(.text*)
 .text          0x000000004a0003b0      0x158 arch/arm/cpu/armv7/built-in.o
                0x000000004a0003b0                __v7_flush_dcache_all
                0x000000004a00044c                v7_flush_dcache_all
                0x000000004a00045c                __v7_invalidate_dcache_all
                0x000000004a0004f8                v7_invalidate_dcache_all
 .text.invalidate_icache_all
                0x000000004a000508       0x14 arch/arm/cpu/armv7/built-in.o
                0x000000004a000508                invalidate_icache_all
 .text.v7_outer_cache_enable
                0x000000004a00051c        0x2 arch/arm/cpu/armv7/built-in.o
                0x000000004a00051c                v7_outer_cache_enable
 .text.v7_outer_cache_disable
                0x000000004a00051e        0x2 arch/arm/cpu/armv7/built-in.o
                0x000000004a00051e                v7_outer_cache_disable
 .text.v7_outer_cache_flush_all
                0x000000004a000520        0x2 arch/arm/cpu/armv7/built-in.o
                0x000000004a000520                v7_outer_cache_flush_all
 .text.flush_dcache_all
                0x000000004a000522        0xe arch/arm/cpu/armv7/built-in.o
                0x000000004a000522                flush_dcache_all
 .text.v7_outer_cache_inval_all
                0x000000004a000530        0x2 arch/arm/cpu/armv7/built-in.o
                0x000000004a000530                v7_outer_cache_inval_all
 .text.invalidate_dcache_all
                0x000000004a000532        0xe arch/arm/cpu/armv7/built-in.o
                0x000000004a000532                invalidate_dcache_all
 .text.arm_init_before_mmu
                0x000000004a000540       0x22 arch/arm/cpu/armv7/built-in.o
                0x000000004a000540                arm_init_before_mmu
 .text.v7_outer_cache_flush_range
                0x000000004a000562        0x2 arch/arm/cpu/armv7/built-in.o
                0x000000004a000562                v7_outer_cache_flush_range
 .text.flush_dcache_range
                0x000000004a000564       0x38 arch/arm/cpu/armv7/built-in.o
                0x000000004a000564                flush_dcache_range
 .text.cpu_cache_initialization
                0x000000004a00059c        0x2 arch/arm/cpu/armv7/built-in.o
                0x000000004a00059c                cpu_cache_initialization
 .text.cleanup_before_linux_select
                0x000000004a00059e       0x3e arch/arm/cpu/armv7/built-in.o
                0x000000004a00059e                cleanup_before_linux_select
 .text.cleanup_before_linux
                0x000000004a0005dc        0x6 arch/arm/cpu/armv7/built-in.o
                0x000000004a0005dc                cleanup_before_linux
 .text.sdelay   0x000000004a0005e2        0x6 arch/arm/cpu/armv7/built-in.o
                0x000000004a0005e2                sdelay
 .text.lowlevel_init
                0x000000004a0005e8       0x24 arch/arm/cpu/armv7/built-in.o
                0x000000004a0005e8                lowlevel_init
 .text.get_gicd_base_address
                0x000000004a00060c       0x2c arch/arm/cpu/armv7/built-in.o
 .text.psci_board_init
                0x000000004a000638        0x2 arch/arm/cpu/armv7/built-in.o
                0x000000004a000638                psci_board_init
 *fill*         0x000000004a00063a        0x2 
 .text.armv7_init_nonsec
                0x000000004a00063c       0x64 arch/arm/cpu/armv7/built-in.o
                0x000000004a00063c                armv7_init_nonsec
 .text.armv7_apply_memory_carveout
                0x000000004a0006a0        0x4 arch/arm/cpu/armv7/built-in.o
                0x000000004a0006a0                armv7_apply_memory_carveout
 .text.psci_update_dt
                0x000000004a0006a4       0x38 arch/arm/cpu/armv7/built-in.o
                0x000000004a0006a4                psci_update_dt
 .text.timer_init
                0x000000004a0006dc       0x1c arch/arm/cpu/armv7/built-in.o
                0x000000004a0006dc                timer_init
 .text.get_timer_masked
                0x000000004a0006f8       0x54 arch/arm/cpu/armv7/built-in.o
                0x000000004a0006f8                get_timer_masked
 .text.get_timer
                0x000000004a00074c        0xc arch/arm/cpu/armv7/built-in.o
                0x000000004a00074c                get_timer
 .text.__udelay
                0x000000004a000758       0x38 arch/arm/cpu/armv7/built-in.o
                0x000000004a000758                __udelay
 .text.get_ticks
                0x000000004a000790        0xa arch/arm/cpu/armv7/built-in.o
                0x000000004a000790                get_ticks
 .text.get_tbclk
                0x000000004a00079a        0x6 arch/arm/cpu/armv7/built-in.o
                0x000000004a00079a                get_tbclk
 .text.tzpc_init
                0x000000004a0007a0       0x20 arch/arm/cpu/armv7/built-in.o
                0x000000004a0007a0                tzpc_init
 .text          0x000000004a0007c0      0x420 arch/arm/lib/built-in.o
                0x000000004a0007c0                _main
                0x000000004a000860                memset
                0x000000004a000900                memcpy
 .text.relocate_vectors
                0x000000004a000be0       0x70 arch/arm/lib/built-in.o
                0x000000004a000be0                relocate_vectors
                0x000000004a000bec                relocate_code
 .text.arch_fixup_fdt
                0x000000004a000c50       0x38 arch/arm/lib/built-in.o
                0x000000004a000c50                arch_fixup_fdt
 .text.arch_lmb_reserve
                0x000000004a000c88       0x20 arch/arm/lib/built-in.o
                0x000000004a000c88                arch_lmb_reserve
 .text.board_quiesce_devices
                0x000000004a000ca8        0x2 arch/arm/lib/built-in.o
                0x000000004a000ca8                board_quiesce_devices
 .text.setup_board_tags
                0x000000004a000caa        0x2 arch/arm/lib/built-in.o
                0x000000004a000caa                setup_board_tags
 .text.boot_prep_linux
                0x000000004a000cac      0x134 arch/arm/lib/built-in.o
 .text.armv7_boot_nonsec_default
                0x000000004a000de0        0x4 arch/arm/lib/built-in.o
                0x000000004a000de0                armv7_boot_nonsec_default
 .text.armv7_boot_nonsec
                0x000000004a000de4       0x40 arch/arm/lib/built-in.o
                0x000000004a000de4                armv7_boot_nonsec
 .text.boot_jump_linux
                0x000000004a000e24       0xa4 arch/arm/lib/built-in.o
 .text.do_bootm_linux
                0x000000004a000ec8       0x40 arch/arm/lib/built-in.o
                0x000000004a000ec8                do_bootm_linux
 .text.boot_prep_vxworks
                0x000000004a000f08       0x30 arch/arm/lib/built-in.o
                0x000000004a000f08                boot_prep_vxworks
 .text.boot_jump_vxworks
                0x000000004a000f38        0x6 arch/arm/lib/built-in.o
                0x000000004a000f38                boot_jump_vxworks
 *fill*         0x000000004a000f3e        0x2 
 .text.bootz_setup
                0x000000004a000f40       0x6c arch/arm/lib/built-in.o
                0x000000004a000f40                bootz_setup
 .text.arch_reserve_stacks
                0x000000004a000fac       0x16 arch/arm/lib/built-in.o
                0x000000004a000fac                arch_reserve_stacks
 *fill*         0x000000004a000fc2        0x2 
 .text.interrupt_init
                0x000000004a000fc4       0x14 arch/arm/lib/built-in.o
                0x000000004a000fc4                interrupt_init
 .text.enable_interrupts
                0x000000004a000fd8        0x2 arch/arm/lib/built-in.o
                0x000000004a000fd8                enable_interrupts
 .text.disable_interrupts
                0x000000004a000fda        0x4 arch/arm/lib/built-in.o
                0x000000004a000fda                disable_interrupts
 *fill*         0x000000004a000fde        0x2 
 .text.bad_mode
                0x000000004a000fe0        0xc arch/arm/lib/built-in.o
                0x000000004a000fe0                bad_mode
 .text.show_regs
                0x000000004a000fec      0x108 arch/arm/lib/built-in.o
                0x000000004a000fec                show_regs
 .text.do_undefined_instruction
                0x000000004a0010f4       0x24 arch/arm/lib/built-in.o
                0x000000004a0010f4                do_undefined_instruction
 .text.do_software_interrupt
                0x000000004a001118       0x24 arch/arm/lib/built-in.o
                0x000000004a001118                do_software_interrupt
 .text.do_prefetch_abort
                0x000000004a00113c       0x24 arch/arm/lib/built-in.o
                0x000000004a00113c                do_prefetch_abort
 .text.do_data_abort
                0x000000004a001160       0x24 arch/arm/lib/built-in.o
                0x000000004a001160                do_data_abort
 .text.do_not_used
                0x000000004a001184       0x24 arch/arm/lib/built-in.o
                0x000000004a001184                do_not_used
 .text.do_fiq   0x000000004a0011a8       0x24 arch/arm/lib/built-in.o
                0x000000004a0011a8                do_fiq
 .text.do_irq   0x000000004a0011cc       0x24 arch/arm/lib/built-in.o
                0x000000004a0011cc                do_irq
 .text.reset_misc
                0x000000004a0011f0        0x2 arch/arm/lib/built-in.o
                0x000000004a0011f0                reset_misc
 *fill*         0x000000004a0011f2        0x2 
 .text.do_reset
                0x000000004a0011f4       0x28 arch/arm/lib/built-in.o
                0x000000004a0011f4                do_reset
 .text.flush_cache
                0x000000004a00121c        0x6 arch/arm/lib/built-in.o
                0x000000004a00121c                flush_cache
 *fill*         0x000000004a001222        0x2 
 .text.check_cache_range
                0x000000004a001224       0x24 arch/arm/lib/built-in.o
                0x000000004a001224                check_cache_range
 .text.arm_init_domains
                0x000000004a001248        0x2 arch/arm/lib/built-in.o
                0x000000004a001248                arm_init_domains
 .text.set_section_dcache
                0x000000004a00124a       0x12 arch/arm/lib/built-in.o
                0x000000004a00124a                set_section_dcache
 .text.dram_bank_mmu_setup
                0x000000004a00125c       0x2a arch/arm/lib/built-in.o
                0x000000004a00125c                dram_bank_mmu_setup
 .text.icache_enable
                0x000000004a001286       0x12 arch/arm/lib/built-in.o
                0x000000004a001286                icache_enable
 .text.icache_disable
                0x000000004a001298       0x16 arch/arm/lib/built-in.o
                0x000000004a001298                icache_disable
 .text.dcache_enable
                0x000000004a0012ae       0x6e arch/arm/lib/built-in.o
                0x000000004a0012ae                dcache_enable
 .text.dcache_disable
                0x000000004a00131c       0x20 arch/arm/lib/built-in.o
                0x000000004a00131c                dcache_disable
 .text.dcache_status
                0x000000004a00133c        0xa arch/arm/lib/built-in.o
                0x000000004a00133c                dcache_status
 *fill*         0x000000004a001346        0x2 
 .text.fdt_psci
                0x000000004a001348      0x168 arch/arm/lib/built-in.o
                0x000000004a001348                fdt_psci
 .text.s_init   0x000000004a0014b0       0x54 arch/arm/mach-sunxi/built-in.o
                0x000000004a0014b0                s_init
 .text.sunxi_get_boot_device
                0x000000004a001504       0x48 arch/arm/mach-sunxi/built-in.o
                0x000000004a001504                sunxi_get_boot_device
 .text.reset_cpu
                0x000000004a00154c       0x20 arch/arm/mach-sunxi/built-in.o
                0x000000004a00154c                reset_cpu
 .text.enable_caches
                0x000000004a00156c        0x4 arch/arm/mach-sunxi/built-in.o
                0x000000004a00156c                enable_caches
 .text.clock_init_sec
                0x000000004a001570       0x24 arch/arm/mach-sunxi/built-in.o
                0x000000004a001574                clock_init_sec
 .text.clock_init
                0x000000004a001594        0xe arch/arm/mach-sunxi/built-in.o
                0x000000004a001594                clock_init
 *fill*         0x000000004a0015a2        0x2 
 .text.clock_twi_onoff
                0x000000004a0015a4       0x4c arch/arm/mach-sunxi/built-in.o
                0x000000004a0015a4                clock_twi_onoff
 .text.sunxi_get_sram_id
                0x000000004a0015f0       0x20 arch/arm/mach-sunxi/built-in.o
                0x000000004a0015f0                sunxi_get_sram_id
 .text.print_cpuinfo
                0x000000004a001610       0x18 arch/arm/mach-sunxi/built-in.o
                0x000000004a001610                print_cpuinfo
 .text.sun8i_efuse_read
                0x000000004a001628       0x5c arch/arm/mach-sunxi/built-in.o
                0x000000004a001628                sun8i_efuse_read
 .text.sunxi_get_sid
                0x000000004a001684       0x18 arch/arm/mach-sunxi/built-in.o
                0x000000004a001684                sunxi_get_sid
 .text.sunxi_gpio_set_cfgbank
                0x000000004a00169c       0x22 arch/arm/mach-sunxi/built-in.o
                0x000000004a00169c                sunxi_gpio_set_cfgbank
 *fill*         0x000000004a0016be        0x2 
 .text.sunxi_gpio_set_cfgpin
                0x000000004a0016c0       0x30 arch/arm/mach-sunxi/built-in.o
                0x000000004a0016c0                sunxi_gpio_set_cfgpin
 .text.sunxi_gpio_get_cfgbank
                0x000000004a0016f0       0x1a arch/arm/mach-sunxi/built-in.o
                0x000000004a0016f0                sunxi_gpio_get_cfgbank
 *fill*         0x000000004a00170a        0x2 
 .text.sunxi_gpio_set_drv
                0x000000004a00170c       0x44 arch/arm/mach-sunxi/built-in.o
                0x000000004a00170c                sunxi_gpio_set_drv
 .text.sunxi_gpio_set_pull
                0x000000004a001750       0x44 arch/arm/mach-sunxi/built-in.o
                0x000000004a001750                sunxi_gpio_set_pull
 .text.sunxi_usb_phy_probe
                0x000000004a001794       0xa4 arch/arm/mach-sunxi/built-in.o
                0x000000004a001794                sunxi_usb_phy_probe
 .text.prcm_apb0_enable
                0x000000004a001838       0x18 arch/arm/mach-sunxi/built-in.o
                0x000000004a001838                prcm_apb0_enable
 .text.prcm_apb0_disable
                0x000000004a001850       0x1c arch/arm/mach-sunxi/built-in.o
                0x000000004a001850                prcm_apb0_disable
 .text.clock_init_uart
                0x000000004a00186c       0x2c arch/arm/mach-sunxi/built-in.o
                0x000000004a00186c                clock_init_uart
 .text.clock_set_pll1
                0x000000004a001898       0x6c arch/arm/mach-sunxi/built-in.o
                0x000000004a001898                clock_set_pll1
 .text.clock_get_pll1
                0x000000004a001904       0x24 arch/arm/mach-sunxi/built-in.o
                0x000000004a001904                clock_get_pll1
 .text.clock_get_pll6
                0x000000004a001928       0x28 arch/arm/mach-sunxi/built-in.o
                0x000000004a001928                clock_get_pll6
 .text.setup_environment
                0x000000004a001950      0x14c board/sunxi/built-in.o
 .text.i2c_init_board
                0x000000004a001a9c       0x22 board/sunxi/built-in.o
                0x000000004a001a9c                i2c_init_board
 *fill*         0x000000004a001abe        0x2 
 .text.board_init
                0x000000004a001ac0      0x1c0 board/sunxi/built-in.o
                0x000000004a001ac0                board_init
 .text.dram_init
                0x000000004a001c80       0x16 board/sunxi/built-in.o
                0x000000004a001c80                dram_init
 *fill*         0x000000004a001c96        0x2 
 .text.board_mmc_init
                0x000000004a001c98       0xb8 board/sunxi/built-in.o
                0x000000004a001c98                board_mmc_init
 .text.get_board_serial
                0x000000004a001d50       0x24 board/sunxi/built-in.o
                0x000000004a001d50                get_board_serial
 .text.misc_init_r
                0x000000004a001d74       0xb4 board/sunxi/built-in.o
                0x000000004a001d74                misc_init_r
 .text.ft_board_setup
                0x000000004a001e28        0xa board/sunxi/built-in.o
                0x000000004a001e28                ft_board_setup
 .text.do_go_exec
                0x000000004a001e32        0x8 cmd/built-in.o
                0x000000004a001e32                do_go_exec
 *fill*         0x000000004a001e3a        0x2 
 .text.do_go    0x000000004a001e3c       0x4c cmd/built-in.o
 .text.do_bootm
                0x000000004a001e88       0xa8 cmd/built-in.o
                0x000000004a001e88                do_bootm
 .text.do_bootd
                0x000000004a001f30       0x18 cmd/built-in.o
                0x000000004a001f30                do_bootd
 .text.image_info
                0x000000004a001f48       0x8c cmd/built-in.o
 .text.do_iminfo
                0x000000004a001fd4       0x40 cmd/built-in.o
 .text.bootm_maybe_autostart
                0x000000004a002014       0x4c cmd/built-in.o
                0x000000004a002014                bootm_maybe_autostart
 .text.do_help  0x000000004a002060       0x30 cmd/built-in.o
 .text.do_version
                0x000000004a002090       0x30 cmd/built-in.o
 .text.blk_common_cmd
                0x000000004a0020c0      0x1e8 cmd/built-in.o
                0x000000004a0020c0                blk_common_cmd
 .text.source   0x000000004a0022a8       0x90 cmd/built-in.o
                0x000000004a0022a8                source
 .text.do_source
                0x000000004a002338       0x30 cmd/built-in.o
 .text.print_num
                0x000000004a002368       0x10 cmd/built-in.o
 .text.do_bdinfo
                0x000000004a002378       0xc4 cmd/built-in.o
 .text.efi_init_obj_list
                0x000000004a00243c       0x28 cmd/built-in.o
 .text.do_bootefi_exec
                0x000000004a002464      0x27c cmd/built-in.o
 .text.do_bootefi
                0x000000004a0026e0       0xc8 cmd/built-in.o
 .text.efi_set_bootdev
                0x000000004a0027a8       0xb4 cmd/built-in.o
                0x000000004a0027a8                efi_set_bootdev
 .text.do_bootz
                0x000000004a00285c       0x9c cmd/built-in.o
                0x000000004a00285c                do_bootz
 .text.do_coninfo
                0x000000004a0028f8       0x84 cmd/built-in.o
 .text.do_echo  0x000000004a00297c       0x70 cmd/built-in.o
 .text.load_elf_image_shdr
                0x000000004a0029ec       0x4a cmd/built-in.o
 *fill*         0x000000004a002a36        0x2 
 .text.valid_elf_image
                0x000000004a002a38       0x30 cmd/built-in.o
                0x000000004a002a38                valid_elf_image
 .text.do_bootelf
                0x000000004a002a68      0x114 cmd/built-in.o
                0x000000004a002a68                do_bootelf
 .text.do_bootvx
                0x000000004a002b7c      0x238 cmd/built-in.o
                0x000000004a002b7c                do_bootvx
 .text.do_exit  0x000000004a002db4       0x1e cmd/built-in.o
 .text.do_ext4_size
                0x000000004a002dd2        0xe cmd/built-in.o
                0x000000004a002dd2                do_ext4_size
 .text.do_ext4_load
                0x000000004a002de0        0xe cmd/built-in.o
                0x000000004a002de0                do_ext4_load
 .text.do_ext4_ls
                0x000000004a002dee        0xe cmd/built-in.o
                0x000000004a002dee                do_ext4_ls
 .text.do_ext2load
                0x000000004a002dfc        0xe cmd/built-in.o
                0x000000004a002dfc                do_ext2load
 .text.do_ext2ls
                0x000000004a002e0a        0xe cmd/built-in.o
 .text.do_fat_size
                0x000000004a002e18        0xe cmd/built-in.o
                0x000000004a002e18                do_fat_size
 .text.do_fat_fsload
                0x000000004a002e26        0xe cmd/built-in.o
                0x000000004a002e26                do_fat_fsload
 .text.do_fat_ls
                0x000000004a002e34        0xe cmd/built-in.o
 *fill*         0x000000004a002e42        0x2 
 .text.do_fat_fsinfo
                0x000000004a002e44       0x58 cmd/built-in.o
 .text.do_fat_fswrite
                0x000000004a002e9c       0xc0 cmd/built-in.o
 .text.fdt_valid
                0x000000004a002f5c       0x74 cmd/built-in.o
 .text.is_printable_string
                0x000000004a002fd0       0x48 cmd/built-in.o
 .text.print_data
                0x000000004a003018      0x104 cmd/built-in.o
 .text.set_working_fdt_addr
                0x000000004a00311c       0x14 cmd/built-in.o
                0x000000004a00311c                set_working_fdt_addr
 .text.do_fdt   0x000000004a003130      0xa84 cmd/built-in.o
 .text.do_size_wrapper
                0x000000004a003bb4        0xe cmd/built-in.o
 *fill*         0x000000004a003bc2        0x2 
 .text.do_load_wrapper
                0x000000004a003bc4       0x40 cmd/built-in.o
 .text.do_save_wrapper
                0x000000004a003c04        0xe cmd/built-in.o
 .text.do_ls_wrapper
                0x000000004a003c12        0xe cmd/built-in.o
 .text.do_fstype_wrapper
                0x000000004a003c20        0x4 cmd/built-in.o
 .text.gpio_get_description
                0x000000004a003c24       0x78 cmd/built-in.o
 .text.do_gpio  0x000000004a003c9c      0x214 cmd/built-in.o
 .text.do_i2c   0x000000004a003eb0       0x3c cmd/built-in.o
 .text.show_bus
                0x000000004a003eec       0x64 cmd/built-in.o
 .text.i2c_get_cur_bus
                0x000000004a003f50       0x4c cmd/built-in.o
 .text.i2c_get_cur_bus_chip
                0x000000004a003f9c       0x1e cmd/built-in.o
 *fill*         0x000000004a003fba        0x2 
 .text.do_i2c_bus_speed
                0x000000004a003fbc       0x64 cmd/built-in.o
 .text.do_i2c_reset
                0x000000004a004020       0x24 cmd/built-in.o
 .text.do_i2c_probe
                0x000000004a004044       0x70 cmd/built-in.o
 .text.do_i2c_show_bus
                0x000000004a0040b4       0x6c cmd/built-in.o
 .text.get_alen.constprop.5
                0x000000004a004120       0x1e cmd/built-in.o
 *fill*         0x000000004a00413e        0x2 
 .text.do_i2c_read
                0x000000004a004140       0x94 cmd/built-in.o
 .text.do_i2c_flags
                0x000000004a0041d4       0x7c cmd/built-in.o
 .text.do_i2c_olen
                0x000000004a004250       0x78 cmd/built-in.o
 .text.do_i2c_md
                0x000000004a0042c8      0x15c cmd/built-in.o
 .text.do_i2c_mw
                0x000000004a004424       0xbc cmd/built-in.o
 .text.do_i2c_crc
                0x000000004a0044e0       0xd8 cmd/built-in.o
 .text.do_edid  0x000000004a0045b8       0x68 cmd/built-in.o
                0x000000004a0045b8                do_edid
 .text.do_i2c_write
                0x000000004a004620      0x104 cmd/built-in.o
 .text.mod_i2c_mem.isra.3
                0x000000004a004724      0x178 cmd/built-in.o
 .text.do_i2c_nm
                0x000000004a00489c        0x6 cmd/built-in.o
 .text.do_i2c_mm
                0x000000004a0048a2        0x6 cmd/built-in.o
 .text.do_i2c_loop
                0x000000004a0048a8       0xb8 cmd/built-in.o
 .text.do_i2c_bus_num
                0x000000004a004960       0x70 cmd/built-in.o
 .text.evalexp  0x000000004a0049d0       0x48 cmd/built-in.o
 .text.evalstr  0x000000004a004a18       0x3c cmd/built-in.o
 .text.binary_test
                0x000000004a004a54      0x104 cmd/built-in.o
 .text.do_itest
                0x000000004a004b58       0x54 cmd/built-in.o
 .text.bin_data_init
                0x000000004a004bac       0x1c cmd/built-in.o
 .text.k_data_save
                0x000000004a004bc8       0x34 cmd/built-in.o
 .text.k_data_restore
                0x000000004a004bfc       0x34 cmd/built-in.o
 .text.getcxmodem
                0x000000004a004c30       0x16 cmd/built-in.o
 *fill*         0x000000004a004c46        0x2 
 .text.load_serial_ymodem
                0x000000004a004c48       0x8c cmd/built-in.o
 .text.bin_data_char
                0x000000004a004cd4       0x1c cmd/built-in.o
 .text.chk1.constprop.1
                0x000000004a004cf0       0x20 cmd/built-in.o
 .text.s1_sendpacket.constprop.2
                0x000000004a004d10       0x34 cmd/built-in.o
 .text.load_serial
                0x000000004a004d44      0x128 cmd/built-in.o
 .text.do_load_serial
                0x000000004a004e6c       0x90 cmd/built-in.o
 .text.do_load_serial_bin
                0x000000004a004efc      0x52c cmd/built-in.o
 .text.do_mem_mw
                0x000000004a005428       0x80 cmd/built-in.o
 .text.do_mem_loop
                0x000000004a0054a8       0x82 cmd/built-in.o
 *fill*         0x000000004a00552a        0x2 
 .text.do_mem_md
                0x000000004a00552c       0xa4 cmd/built-in.o
 .text.do_mem_cmp
                0x000000004a0055d0       0xf0 cmd/built-in.o
 .text.do_mem_base
                0x000000004a0056c0       0x28 cmd/built-in.o
 .text.do_mem_cp
                0x000000004a0056e8       0x74 cmd/built-in.o
 .text.do_mem_crc
                0x000000004a00575c       0x2c cmd/built-in.o
 .text.do_mem_mtest
                0x000000004a005788      0x16c cmd/built-in.o
 .text.mod_mem.isra.2
                0x000000004a0058f4       0xf4 cmd/built-in.o
 .text.do_mem_mm
                0x000000004a0059e8        0x6 cmd/built-in.o
 .text.do_mem_nm
                0x000000004a0059ee        0x6 cmd/built-in.o
 .text.board_show_dram
                0x000000004a0059f4       0x20 cmd/built-in.o
                0x000000004a0059f4                board_show_dram
 .text.do_mem_info
                0x000000004a005a14        0xe cmd/built-in.o
 .text.extract_range
                0x000000004a005a22       0x30 cmd/built-in.o
 *fill*         0x000000004a005a52        0x2 
 .text.do_mii   0x000000004a005a54      0x610 cmd/built-in.o
 .text.do_sleep
                0x000000004a006064       0x88 cmd/built-in.o
 .text.do_mmcops
                0x000000004a0060ec       0x78 cmd/built-in.o
 .text.init_mmc_device
                0x000000004a006164       0x34 cmd/built-in.o
 .text.do_mmc_rescan
                0x000000004a006198       0x18 cmd/built-in.o
 .text.do_mmc_hwpartition
                0x000000004a0061b0      0x3a0 cmd/built-in.o
 .text.do_mmc_list
                0x000000004a006550        0xc cmd/built-in.o
 .text.do_mmc_dev
                0x000000004a00655c       0xcc cmd/built-in.o
 .text.do_mmc_read
                0x000000004a006628       0x98 cmd/built-in.o
 .text.do_mmc_part
                0x000000004a0066c0       0x38 cmd/built-in.o
 .text.do_mmc_erase
                0x000000004a0066f8       0xa0 cmd/built-in.o
 .text.do_mmc_write
                0x000000004a006798       0xb0 cmd/built-in.o
 .text.do_mmcinfo
                0x000000004a006848      0x28c cmd/built-in.o
 .text.do_mmc_setdsr
                0x000000004a006ad4       0x74 cmd/built-in.o
 .text.netboot_common
                0x000000004a006b48      0x1a8 cmd/built-in.o
 .text.do_bootp
                0x000000004a006cf0        0x8 cmd/built-in.o
 .text.do_dhcp  0x000000004a006cf8        0x8 cmd/built-in.o
 .text.do_nfs   0x000000004a006d00        0x8 cmd/built-in.o
 .text.do_tftpb
                0x000000004a006d08       0x26 cmd/built-in.o
                0x000000004a006d08                do_tftpb
 *fill*         0x000000004a006d2e        0x2 
 .text.do_ping  0x000000004a006d30       0x4c cmd/built-in.o
 .text.do_part_list
                0x000000004a006d7c       0xe8 cmd/built-in.o
 .text.do_part_start
                0x000000004a006e64       0x84 cmd/built-in.o
 .text.do_part_size
                0x000000004a006ee8       0x84 cmd/built-in.o
 .text.do_part  0x000000004a006f6c       0xb0 cmd/built-in.o
 .text.eol_or_eof
                0x000000004a00701c       0x12 cmd/built-in.o
 *fill*         0x000000004a00702e        0x2 
 .text.do_pxe   0x000000004a007030       0x44 cmd/built-in.o
 .text.label_print
                0x000000004a007074       0x14 cmd/built-in.o
 .text.do_get_tftp
                0x000000004a007088       0x2c cmd/built-in.o
 .text.from_env
                0x000000004a0070b4       0x1c cmd/built-in.o
 .text.get_string
                0x000000004a0070d0       0x7c cmd/built-in.o
 .text.label_destroy
                0x000000004a00714c       0x3e cmd/built-in.o
 .text.destroy_pxe_menu
                0x000000004a00718a       0x36 cmd/built-in.o
 .text.get_token
                0x000000004a0071c0       0xa4 cmd/built-in.o
 .text.parse_sliteral
                0x000000004a007264       0x34 cmd/built-in.o
 .text.parse_integer
                0x000000004a007298       0x44 cmd/built-in.o
 .text.do_get_any
                0x000000004a0072dc       0x2c cmd/built-in.o
 .text.do_get_fat
                0x000000004a007308       0x28 cmd/built-in.o
 .text.do_get_ext2
                0x000000004a007330       0x28 cmd/built-in.o
 .text.format_mac_pxe.constprop.9
                0x000000004a007358       0x54 cmd/built-in.o
 .text.get_relfile
                0x000000004a0073ac       0xcc cmd/built-in.o
 .text.get_pxe_file
                0x000000004a007478       0x3c cmd/built-in.o
 .text.handle_include
                0x000000004a0074b4       0x68 cmd/built-in.o
 .text.parse_pxefile_top
                0x000000004a00751c      0x310 cmd/built-in.o
 .text.parse_pxefile
                0x000000004a00782c       0x40 cmd/built-in.o
 .text.get_pxelinux_path
                0x000000004a00786c       0x54 cmd/built-in.o
 .text.do_pxe_get
                0x000000004a0078c0       0xe4 cmd/built-in.o
 .text.get_relfile_envaddr
                0x000000004a0079a4       0x34 cmd/built-in.o
 .text.label_boot
                0x000000004a0079d8      0x3b8 cmd/built-in.o
 .text.handle_pxe_menu
                0x000000004a007d90       0xd8 cmd/built-in.o
 .text.do_pxe_boot
                0x000000004a007e68       0x94 cmd/built-in.o
 .text.do_sysboot
                0x000000004a007efc      0x13c cmd/built-in.o
 .text.substitute
                0x000000004a008038       0x98 cmd/built-in.o
 .text.get_arg  0x000000004a0080d0       0x34 cmd/built-in.o
 .text.regex_sub
                0x000000004a008104      0x224 cmd/built-in.o
 .text.do_setexpr
                0x000000004a008328       0xe8 cmd/built-in.o
 .text.do_false
                0x000000004a008410        0x4 cmd/built-in.o
 .text.do_true  0x000000004a008414        0x4 cmd/built-in.o
 .text.do_test  0x000000004a008418      0x210 cmd/built-in.o
 .text.usb_get_class_desc
                0x000000004a008628       0x74 cmd/built-in.o
 .text.usb_display_class_sub
                0x000000004a00869c       0xf4 cmd/built-in.o
 .text.usb_display_desc
                0x000000004a008790       0xf0 cmd/built-in.o
 .text.usb_show_tree_graph
                0x000000004a008880      0x148 cmd/built-in.o
 .text.usb_show_subtree
                0x000000004a0089c8       0x1c cmd/built-in.o
 .text.usb_for_each_root_dev
                0x000000004a0089e4       0x38 cmd/built-in.o
 .text.usb_display_string
                0x000000004a008a1c       0x2c cmd/built-in.o
 .text.usb_display_config
                0x000000004a008a48      0x1a8 cmd/built-in.o
 .text.usb_show_info
                0x000000004a008bf0       0x36 cmd/built-in.o
 .text.usb_find_device
                0x000000004a008c26       0x62 cmd/built-in.o
 .text.do_usbboot
                0x000000004a008c88        0xc cmd/built-in.o
 .text.do_usb_start
                0x000000004a008c94       0x20 cmd/built-in.o
 .text.usb_show_tree
                0x000000004a008cb4        0xc cmd/built-in.o
                0x000000004a008cb4                usb_show_tree
 .text.do_usb   0x000000004a008cc0      0x2a8 cmd/built-in.o
 .text.common_diskboot
                0x000000004a008f68      0x178 cmd/built-in.o
                0x000000004a008f68                common_diskboot
 .text.do_imgextract
                0x000000004a0090e0      0x1b8 cmd/built-in.o
 .text.extract_val
                0x000000004a009298       0x58 cmd/built-in.o
 .text.extract_env
                0x000000004a0092f0       0xa0 cmd/built-in.o
 .text.set_gpt_info.isra.1.constprop.2
                0x000000004a009390      0x328 cmd/built-in.o
 .text.do_gpt   0x000000004a0096b8      0x224 cmd/built-in.o
 .text.do_env_delete
                0x000000004a0098dc       0x60 cmd/built-in.o
 .text.do_env_exists
                0x000000004a00993c       0x40 cmd/built-in.o
 .text.do_env_save
                0x000000004a00997c       0x20 cmd/built-in.o
 .text.do_env   0x000000004a00999c       0x3c cmd/built-in.o
 .text.env_print
                0x000000004a0099d8       0x74 cmd/built-in.o
 .text.do_env_print
                0x000000004a009a4c       0x74 cmd/built-in.o
 .text.do_env_import
                0x000000004a009ac0      0x17c cmd/built-in.o
 .text.do_env_default
                0x000000004a009c3c       0x54 cmd/built-in.o
 .text._do_env_set.isra.1
                0x000000004a009c90      0x12c cmd/built-in.o
 .text.do_env_set
                0x000000004a009dbc       0x14 cmd/built-in.o
 .text.get_env_id
                0x000000004a009dd0        0xc cmd/built-in.o
                0x000000004a009dd0                get_env_id
 .text.env_set  0x000000004a009ddc       0x3c cmd/built-in.o
                0x000000004a009ddc                env_set
 .text.env_set_ulong
                0x000000004a009e18       0x16 cmd/built-in.o
                0x000000004a009e18                env_set_ulong
 *fill*         0x000000004a009e2e        0x2 
 .text.env_set_hex
                0x000000004a009e30       0x20 cmd/built-in.o
                0x000000004a009e30                env_set_hex
 .text.do_env_export
                0x000000004a009e50      0x15c cmd/built-in.o
 .text.envmatch
                0x000000004a009fac       0x3e cmd/built-in.o
                0x000000004a009fac                envmatch
 *fill*         0x000000004a009fea        0x2 
 .text.env_get_f
                0x000000004a009fec       0x88 cmd/built-in.o
                0x000000004a009fec                env_get_f
 .text.env_get  0x000000004a00a074       0x50 cmd/built-in.o
                0x000000004a00a074                env_get
 .text.env_get_hex
                0x000000004a00a0c4       0x22 cmd/built-in.o
                0x000000004a00a0c4                env_get_hex
 .text.env_get_ulong
                0x000000004a00a0e6       0x1c cmd/built-in.o
                0x000000004a00a0e6                env_get_ulong
 *fill*         0x000000004a00a102        0x2 
 .text.do_env_edit.part.3
                0x000000004a00a104       0x6c cmd/built-in.o
 .text.do_env_edit
                0x000000004a00a170       0x1c cmd/built-in.o
 .text.board_init_f_alloc_reserve
                0x000000004a00a18c        0xa common/built-in.o
                0x000000004a00a18c                board_init_f_alloc_reserve
 .text.board_init_f_init_reserve
                0x000000004a00a196       0x14 common/built-in.o
                0x000000004a00a196                board_init_f_init_reserve
 .text.show_boot_progress
                0x000000004a00a1aa        0x4 common/built-in.o
                0x000000004a00a1aa                show_boot_progress
 *fill*         0x000000004a00a1ae        0x2 
 .text.main_loop
                0x000000004a00a1b0       0x50 common/built-in.o
                0x000000004a00a1b0                main_loop
 .text.mdelay   0x000000004a00a200       0x14 common/built-in.o
 .text.dummy    0x000000004a00a214        0x2 common/built-in.o
 .text.get_version
                0x000000004a00a216        0x4 common/built-in.o
                0x000000004a00a216                get_version
 *fill*         0x000000004a00a21a        0x2 
 .text.jumptable_init
                0x000000004a00a21c      0x168 common/built-in.o
                0x000000004a00a21c                jumptable_init
 .text.hash_command
                0x000000004a00a384       0x70 common/built-in.o
                0x000000004a00a384                hash_command
 .text.b_reset  0x000000004a00a3f4        0xe common/built-in.o
 .text.static_get
                0x000000004a00a402       0x12 common/built-in.o
 .text.static_peek
                0x000000004a00a414        0x6 common/built-in.o
 .text.file_peek
                0x000000004a00a41a        0x6 common/built-in.o
 .text.mapset   0x000000004a00a420       0x14 common/built-in.o
 .text.syntax_err
                0x000000004a00a434        0xc common/built-in.o
 .text.free_pipe_list
                0x000000004a00a440       0xa4 common/built-in.o
 .text.xmalloc  0x000000004a00a4e4       0x18 common/built-in.o
 .text.new_pipe
                0x000000004a00a4fc       0x16 common/built-in.o
 *fill*         0x000000004a00a512        0x2 
 .text.xrealloc
                0x000000004a00a514       0x18 common/built-in.o
 .text.done_command
                0x000000004a00a52c       0x42 common/built-in.o
 .text.done_pipe
                0x000000004a00a56e       0x2a common/built-in.o
 .text.done_word
                0x000000004a00a598      0x1cc common/built-in.o
 .text.do_showvar
                0x000000004a00a764       0xa4 common/built-in.o
 .text.is_assignment
                0x000000004a00a808       0x2c common/built-in.o
 .text.file_get
                0x000000004a00a834      0x144 common/built-in.o
 .text.b_addchr
                0x000000004a00a978       0x42 common/built-in.o
 *fill*         0x000000004a00a9ba        0x2 
 .text.b_addqchr
                0x000000004a00a9bc       0x30 common/built-in.o
 .text.get_local_var
                0x000000004a00a9ec       0x58 common/built-in.o
                0x000000004a00a9ec                get_local_var
 .text.set_local_var
                0x000000004a00aa44      0x10c common/built-in.o
                0x000000004a00aa44                set_local_var
 .text.insert_var_value_sub
                0x000000004a00ab50      0x1c0 common/built-in.o
 .text.parse_string_outer
                0x000000004a00ad10       0x94 common/built-in.o
                0x000000004a00ad10                parse_string_outer
 .text.run_list_real
                0x000000004a00ada4      0x4d8 common/built-in.o
 .text.parse_stream_outer
                0x000000004a00b27c      0x440 common/built-in.o
 .text.parse_file_outer
                0x000000004a00b6bc       0x2c common/built-in.o
                0x000000004a00b6bc                parse_file_outer
 .text.u_boot_hush_start
                0x000000004a00b6e8       0x30 common/built-in.o
                0x000000004a00b6e8                u_boot_hush_start
 .text.bootdelay_process
                0x000000004a00b718       0x88 common/built-in.o
                0x000000004a00b718                bootdelay_process
 .text.autoboot_command
                0x000000004a00b7a0       0xa0 common/built-in.o
                0x000000004a00b7a0                autoboot_command
 .text.display_text_info
                0x000000004a00b840        0x4 common/built-in.o
 .text.setup_mon_len
                0x000000004a00b844       0x18 common/built-in.o
 .text.arch_cpu_init
                0x000000004a00b85c        0x4 common/built-in.o
                0x000000004a00b85c                arch_cpu_init
 .text.mach_cpu_init
                0x000000004a00b860        0x4 common/built-in.o
                0x000000004a00b860                mach_cpu_init
 .text.reserve_round_4k
                0x000000004a00b864       0x14 common/built-in.o
 .text.reserve_mmu
                0x000000004a00b878       0x2e common/built-in.o
                0x000000004a00b878                reserve_mmu
 .text.reserve_video
                0x000000004a00b8a6        0x4 common/built-in.o
 .text.reserve_trace
                0x000000004a00b8aa        0x4 common/built-in.o
 .text.reserve_uboot
                0x000000004a00b8ae       0x2a common/built-in.o
 .text.reserve_malloc
                0x000000004a00b8d8       0x14 common/built-in.o
 .text.setup_machine
                0x000000004a00b8ec        0x4 common/built-in.o
 .text.reserve_global_data
                0x000000004a00b8f0       0x16 common/built-in.o
 .text.reserve_fdt
                0x000000004a00b906       0x3a common/built-in.o
 .text.reserve_bootstage
                0x000000004a00b940        0x4 common/built-in.o
 .text.display_new_sp
                0x000000004a00b944        0x4 common/built-in.o
 .text.reloc_bootstage
                0x000000004a00b948        0x4 common/built-in.o
 .text.initf_console_record
                0x000000004a00b94c        0x4 common/built-in.o
 .text.reserve_arch
                0x000000004a00b950        0x4 common/built-in.o
                0x000000004a00b950                reserve_arch
 .text.arch_cpu_init_dm
                0x000000004a00b954        0x4 common/built-in.o
                0x000000004a00b954                arch_cpu_init_dm
 .text.dram_init_banksize
                0x000000004a00b958       0x1a common/built-in.o
                0x000000004a00b958                dram_init_banksize
 .text.setup_reloc
                0x000000004a00b972       0x26 common/built-in.o
 .text.reloc_fdt
                0x000000004a00b998       0x2c common/built-in.o
 .text.reserve_board
                0x000000004a00b9c4       0x28 common/built-in.o
 .text.announce_dram_init
                0x000000004a00b9ec       0x10 common/built-in.o
 .text.init_baud_rate
                0x000000004a00b9fc       0x1c common/built-in.o
 .text.initf_dm
                0x000000004a00ba18        0x6 common/built-in.o
 .text.initf_bootstage
                0x000000004a00ba1e        0xc common/built-in.o
 .text.coloured_LED_init
                0x000000004a00ba2a        0x2 common/built-in.o
                0x000000004a00ba2a                coloured_LED_init
 .text.red_led_on
                0x000000004a00ba2c        0x2 common/built-in.o
                0x000000004a00ba2c                red_led_on
 .text.board_add_ram_info
                0x000000004a00ba2e        0x2 common/built-in.o
                0x000000004a00ba2e                board_add_ram_info
 .text.show_dram_config
                0x000000004a00ba30       0x28 common/built-in.o
 .text.board_get_usable_ram_top
                0x000000004a00ba58       0x12 common/built-in.o
                0x000000004a00ba58                board_get_usable_ram_top
 .text.setup_dest_addr
                0x000000004a00ba6a       0x30 common/built-in.o
 .text.reserve_stacks
                0x000000004a00ba9a       0x1a common/built-in.o
 .text.board_init_f
                0x000000004a00bab4       0x20 common/built-in.o
                0x000000004a00bab4                board_init_f
 .text.bootstage_relocate
                0x000000004a00bad4        0x4 common/built-in.o
 .text.initr_trace
                0x000000004a00bad8        0x4 common/built-in.o
 .text.initr_reloc
                0x000000004a00badc       0x14 common/built-in.o
 .text.initr_barrier
                0x000000004a00baf0        0x4 common/built-in.o
 .text.initr_console_record
                0x000000004a00baf4        0x4 common/built-in.o
 .text.power_init_board
                0x000000004a00baf8        0x4 common/built-in.o
                0x000000004a00baf8                power_init_board
 .text.initr_announce
                0x000000004a00bafc        0x4 common/built-in.o
 .text.dram_set_clk
                0x000000004a00bb00        0x4 common/built-in.o
 .text.init_env_boot_mmc
                0x000000004a00bb04       0x70 common/built-in.o
 .text.run_main_loop
                0x000000004a00bb74        0x8 common/built-in.o
 .text.turn_off_tft_bl
                0x000000004a00bb7c       0x2c common/built-in.o
 .text.initr_net
                0x000000004a00bba8       0x14 common/built-in.o
 .text.initr_ethaddr
                0x000000004a00bbbc       0x18 common/built-in.o
 .text.initr_enable_interrupts
                0x000000004a00bbd4        0xa common/built-in.o
 .text.initr_jumptable
                0x000000004a00bbde        0xa common/built-in.o
 .text.initr_env
                0x000000004a00bbe8       0x48 common/built-in.o
 .text.initr_mmc
                0x000000004a00bc30       0x18 common/built-in.o
 .text.initr_serial
                0x000000004a00bc48        0xa common/built-in.o
 .text.initr_dm
                0x000000004a00bc52       0x12 common/built-in.o
 .text.initr_bootstage
                0x000000004a00bc64        0xc common/built-in.o
 .text.initr_malloc
                0x000000004a00bc70       0x1c common/built-in.o
 .text.initr_reloc_global_data
                0x000000004a00bc8c       0x28 common/built-in.o
 .text.initr_caches
                0x000000004a00bcb4        0xa common/built-in.o
 .text.cpu_secondary_init_r
                0x000000004a00bcbe        0x2 common/built-in.o
                0x000000004a00bcbe                cpu_secondary_init_r
 .text.initr_secondary_cpu
                0x000000004a00bcc0        0xa common/built-in.o
 *fill*         0x000000004a00bcca        0x2 
 .text.nanopi_get_board
                0x000000004a00bccc       0x20 common/built-in.o
                0x000000004a00bccc                nanopi_get_board
 .text.setup_env_boardtype
                0x000000004a00bcec       0x48 common/built-in.o
 .text.board_init_r
                0x000000004a00bd34       0x10 common/built-in.o
                0x000000004a00bd34                board_init_r
 .text.checkboard
                0x000000004a00bd44        0x4 common/built-in.o
                0x000000004a00bd44                checkboard
 .text.show_board_info
                0x000000004a00bd48       0x2c common/built-in.o
                0x000000004a00bd48                show_board_info
 .text.bootm_find_images
                0x000000004a00bd74       0x6c common/built-in.o
                0x000000004a00bd74                bootm_find_images
 .text.bootm_decomp_image
                0x000000004a00bde0       0xe8 common/built-in.o
                0x000000004a00bde0                bootm_decomp_image
 .text.bootm_disable_interrupts
                0x000000004a00bec8       0x10 common/built-in.o
                0x000000004a00bec8                bootm_disable_interrupts
 .text.do_bootm_states
                0x000000004a00bed8      0x4d8 common/built-in.o
                0x000000004a00bed8                do_bootm_states
 .text.copy_args
                0x000000004a00c3b0       0x38 common/built-in.o
 .text.do_bootm_rtems
                0x000000004a00c3e8       0x2c common/built-in.o
 .text.do_bootm_plan9
                0x000000004a00c414       0x68 common/built-in.o
 .text.do_bootm_standalone
                0x000000004a00c47c       0x3c common/built-in.o
 .text.do_bootm_qnxelf
                0x000000004a00c4b8       0x4c common/built-in.o
 .text.do_bootm_netbsd
                0x000000004a00c504       0xa4 common/built-in.o
 .text.do_bootvx_fdt
                0x000000004a00c5a8       0xc0 common/built-in.o
                0x000000004a00c5a8                do_bootvx_fdt
 .text.do_bootm_vxworks
                0x000000004a00c668       0x16 common/built-in.o
 .text.arch_preboot_os
                0x000000004a00c67e        0x2 common/built-in.o
                0x000000004a00c67e                arch_preboot_os
 .text.boot_selected_os
                0x000000004a00c680       0x3a common/built-in.o
                0x000000004a00c680                boot_selected_os
 *fill*         0x000000004a00c6ba        0x2 
 .text.bootm_os_get_boot_func
                0x000000004a00c6bc        0xc common/built-in.o
                0x000000004a00c6bc                bootm_os_get_boot_func
 .text.of_bus_default_map
                0x000000004a00c6c8       0xa6 common/built-in.o
 *fill*         0x000000004a00c76e        0x2 
 .text.fdt_support_default_count_cells
                0x000000004a00c770       0x34 common/built-in.o
                0x000000004a00c770                fdt_support_default_count_cells
 .text.of_bus_default_translate
                0x000000004a00c7a4       0x78 common/built-in.o
 .text.fdt_find_and_setprop
                0x000000004a00c81c       0x48 common/built-in.o
                0x000000004a00c81c                fdt_find_and_setprop
 .text.fdt_find_or_add_subnode
                0x000000004a00c864       0x40 common/built-in.o
                0x000000004a00c864                fdt_find_or_add_subnode
 .text.fdt_root
                0x000000004a00c8a4       0x60 common/built-in.o
                0x000000004a00c8a4                fdt_root
 .text.fdt_initrd
                0x000000004a00c904      0x134 common/built-in.o
                0x000000004a00c904                fdt_initrd
 .text.fdt_chosen
                0x000000004a00ca38       0x90 common/built-in.o
                0x000000004a00ca38                fdt_chosen
 .text.do_fixup_by_path
                0x000000004a00cac8       0x34 common/built-in.o
                0x000000004a00cac8                do_fixup_by_path
 .text.fdt_fixup_memory_banks
                0x000000004a00cafc      0x120 common/built-in.o
                0x000000004a00cafc                fdt_fixup_memory_banks
 .text.fdt_fixup_memory
                0x000000004a00cc1c       0x16 common/built-in.o
                0x000000004a00cc1c                fdt_fixup_memory
 *fill*         0x000000004a00cc32        0x2 
 .text.fdt_fixup_ethernet
                0x000000004a00cc34       0xfc common/built-in.o
                0x000000004a00cc34                fdt_fixup_ethernet
 .text.fdt_shrink_to_minimum
                0x000000004a00cd30       0x8a common/built-in.o
                0x000000004a00cd30                fdt_shrink_to_minimum
 *fill*         0x000000004a00cdba        0x2 
 .text.fdt_translate_address
                0x000000004a00cdbc      0x198 common/built-in.o
                0x000000004a00cdbc                fdt_translate_address
 .text.miiphy_get_dev_by_name
                0x000000004a00cf54       0x38 common/built-in.o
                0x000000004a00cf54                miiphy_get_dev_by_name
 .text.miiphy_init
                0x000000004a00cf8c       0x18 common/built-in.o
                0x000000004a00cf8c                miiphy_init
 .text.miiphy_set_current_dev
                0x000000004a00cfa4       0x28 common/built-in.o
                0x000000004a00cfa4                miiphy_set_current_dev
 .text.miiphy_get_active_dev
                0x000000004a00cfcc       0x30 common/built-in.o
 .text.miiphy_get_current_dev
                0x000000004a00cffc       0x10 common/built-in.o
                0x000000004a00cffc                miiphy_get_current_dev
 .text.miiphy_read
                0x000000004a00d00c       0x28 common/built-in.o
                0x000000004a00d00c                miiphy_read
 .text.miiphy_write
                0x000000004a00d034       0x24 common/built-in.o
                0x000000004a00d034                miiphy_write
 .text.miiphy_listdev
                0x000000004a00d058       0x54 common/built-in.o
                0x000000004a00d058                miiphy_listdev
 .text.miiphy_info
                0x000000004a00d0ac       0x5c common/built-in.o
                0x000000004a00d0ac                miiphy_info
 .text.miiphy_speed
                0x000000004a00d108       0x84 common/built-in.o
                0x000000004a00d108                miiphy_speed
 .text.miiphy_duplex
                0x000000004a00d18c       0x80 common/built-in.o
                0x000000004a00d18c                miiphy_duplex
 .text.miiphy_is_1000base_x
                0x000000004a00d20c        0x4 common/built-in.o
                0x000000004a00d20c                miiphy_is_1000base_x
 .text.usb_set_maxpacket_ep
                0x000000004a00d210       0x54 common/built-in.o
 .text.usb_control_msg
                0x000000004a00d264       0x70 common/built-in.o
                0x000000004a00d264                usb_control_msg
 .text.usb_get_descriptor
                0x000000004a00d2d4       0x38 common/built-in.o
 .text.get_descriptor_len
                0x000000004a00d30c       0x60 common/built-in.o
 .text.usb_setup_descriptor
                0x000000004a00d36c       0x84 common/built-in.o
 .text.usb_get_string
                0x000000004a00d3f0       0x4e common/built-in.o
 *fill*         0x000000004a00d43e        0x2 
 .text.usb_string_sub
                0x000000004a00d440       0x94 common/built-in.o
 .text.usb_bulk_msg
                0x000000004a00d4d4       0x52 common/built-in.o
                0x000000004a00d4d4                usb_bulk_msg
 .text.usb_maxpacket
                0x000000004a00d526       0x1a common/built-in.o
                0x000000004a00d526                usb_maxpacket
 .text.usb_clear_halt
                0x000000004a00d540       0x5c common/built-in.o
                0x000000004a00d540                usb_clear_halt
 .text.usb_get_configuration_len
                0x000000004a00d59c       0x50 common/built-in.o
                0x000000004a00d59c                usb_get_configuration_len
 .text.usb_get_configuration_no
                0x000000004a00d5ec       0x1c common/built-in.o
                0x000000004a00d5ec                usb_get_configuration_no
 .text.usb_set_interface
                0x000000004a00d608       0x78 common/built-in.o
                0x000000004a00d608                usb_set_interface
 .text.usb_set_protocol
                0x000000004a00d680       0x2e common/built-in.o
                0x000000004a00d680                usb_set_protocol
 .text.usb_set_idle
                0x000000004a00d6ae       0x32 common/built-in.o
                0x000000004a00d6ae                usb_set_idle
 .text.usb_string
                0x000000004a00d6e0       0xa4 common/built-in.o
                0x000000004a00d6e0                usb_string
 .text.usb_select_config
                0x000000004a00d784      0x320 common/built-in.o
                0x000000004a00d784                usb_select_config
 .text.usb_setup_device
                0x000000004a00daa4       0xa8 common/built-in.o
                0x000000004a00daa4                usb_setup_device
 .text.usb_device_has_child_on_port
                0x000000004a00db4c        0x4 common/built-in.o
                0x000000004a00db4c                usb_device_has_child_on_port
 .text.usb_set_port_feature
                0x000000004a00db50       0x2e common/built-in.o
 .text.usb_clear_port_feature
                0x000000004a00db7e       0x2e common/built-in.o
 .text.usb_get_hub_descriptor
                0x000000004a00dbac       0x42 common/built-in.o
 .text.usb_hub_reset_devices
                0x000000004a00dbee        0x2 common/built-in.o
                0x000000004a00dbee                usb_hub_reset_devices
 .text.usb_hub_is_root_hub
                0x000000004a00dbf0       0x10 common/built-in.o
                0x000000004a00dbf0                usb_hub_is_root_hub
 .text.usb_get_port_status
                0x000000004a00dc00       0x70 common/built-in.o
                0x000000004a00dc00                usb_get_port_status
 .text.usb_hub_port_connect_change
                0x000000004a00dc70      0x104 common/built-in.o
                0x000000004a00dc70                usb_hub_port_connect_change
 .text.usb_hub_configure
                0x000000004a00dd74      0x3d4 common/built-in.o
 .text.usb_hub_scan
                0x000000004a00e148        0xe common/built-in.o
                0x000000004a00e148                usb_hub_scan
 .text.usb_hub_post_probe
                0x000000004a00e156        0x4 common/built-in.o
 .text.usb_stor_irq
                0x000000004a00e15a       0x10 common/built-in.o
 .text.usb_stor_BBB_reset
                0x000000004a00e16a       0xac common/built-in.o
 .text.usb_stor_CB_reset
                0x000000004a00e216       0x96 common/built-in.o
 .text.usb_stor_BBB_clear_endpt_stall.isra.0
                0x000000004a00e2ac       0x2c common/built-in.o
 .text.usb_stor_BBB_transport
                0x000000004a00e2d8      0x1b0 common/built-in.o
 .text.usb_stor_CB_comdat
                0x000000004a00e488      0x154 common/built-in.o
 .text.usb_stor_CBI_get_status.isra.2
                0x000000004a00e5dc       0x88 common/built-in.o
 .text.usb_stor_CB_transport
                0x000000004a00e664      0x16c common/built-in.o
 .text.usb_request_sense.constprop.11
                0x000000004a00e7d0       0x4c common/built-in.o
 .text.usb_stor_read
                0x000000004a00e81c       0xfc common/built-in.o
 .text.usb_stor_write
                0x000000004a00e918       0xfc common/built-in.o
 .text.usb_stor_info
                0x000000004a00ea14       0x4c common/built-in.o
                0x000000004a00ea14                usb_stor_info
 .text.usb_stor_reset
                0x000000004a00ea60        0xc common/built-in.o
                0x000000004a00ea60                usb_stor_reset
 .text.usb_stor_scan
                0x000000004a00ea6c       0x30 common/built-in.o
                0x000000004a00ea6c                usb_stor_scan
 .text.usb_storage_probe
                0x000000004a00ea9c      0x188 common/built-in.o
                0x000000004a00ea9c                usb_storage_probe
 .text.usb_stor_get_info
                0x000000004a00ec24      0x220 common/built-in.o
                0x000000004a00ec24                usb_stor_get_info
 .text.usb_mass_storage_probe
                0x000000004a00ee44      0x134 common/built-in.o
 .text.iomux_doenv
                0x000000004a00ef78      0x128 common/built-in.o
                0x000000004a00ef78                iomux_doenv
 .text.snip     0x000000004a00f0a0       0x38 common/built-in.o
 .text.edid_check_info
                0x000000004a00f0d8       0x30 common/built-in.o
                0x000000004a00f0d8                edid_check_info
 .text.edid_print_info
                0x000000004a00f108      0x498 common/built-in.o
                0x000000004a00f108                edid_print_info
 .text.menu_display_statusline
                0x000000004a00f5a0        0x2 common/built-in.o
                0x000000004a00f5a0                menu_display_statusline
 .text.menu_default_set
                0x000000004a00f5a2       0x56 common/built-in.o
                0x000000004a00f5a2                menu_default_set
 .text.menu_get_choice
                0x000000004a00f5f8      0x12c common/built-in.o
                0x000000004a00f5f8                menu_get_choice
 .text.menu_item_add
                0x000000004a00f724       0x8c common/built-in.o
                0x000000004a00f724                menu_item_add
 .text.menu_create
                0x000000004a00f7b0       0x54 common/built-in.o
                0x000000004a00f7b0                menu_create
 .text.menu_destroy
                0x000000004a00f804       0x44 common/built-in.o
                0x000000004a00f804                menu_destroy
 .text.usb_kbd_remove
                0x000000004a00f848       0x74 common/built-in.o
 .text.usb_kbd_translate.part.0
                0x000000004a00f8bc       0xd0 common/built-in.o
 .text.usb_kbd_probe
                0x000000004a00f98c      0x14c common/built-in.o
 .text.usb_kbd_irq_worker
                0x000000004a00fad8      0x12c common/built-in.o
 .text.usb_kbd_getc
                0x000000004a00fc04       0x88 common/built-in.o
 .text.usb_kbd_testc
                0x000000004a00fc8c       0x98 common/built-in.o
 .text.usb_kbd_irq
                0x000000004a00fd24       0x16 common/built-in.o
 *fill*         0x000000004a00fd3a        0x2 
 .text.delete_char.part.0
                0x000000004a00fd3c       0x84 common/built-in.o
 .text.cread_add_char
                0x000000004a00fdc0       0x80 common/built-in.o
 .text.cli_readline_into_buffer
                0x000000004a00fe40      0x674 common/built-in.o
                0x000000004a00fe40                cli_readline_into_buffer
 .text.cli_readline
                0x000000004a0104b4       0x10 common/built-in.o
                0x000000004a0104b4                cli_readline
 .text.cli_simple_process_macros
                0x000000004a0104c4      0x122 common/built-in.o
                0x000000004a0104c4                cli_simple_process_macros
 *fill*         0x000000004a0105e6        0x2 
 .text.console_tstc
                0x000000004a0105e8       0x5c common/built-in.o
 .text.console_putc
                0x000000004a010644       0x38 common/built-in.o
 .text.console_puts
                0x000000004a01067c       0x38 common/built-in.o
 .text.pre_console_putc
                0x000000004a0106b4       0x16 common/built-in.o
 *fill*         0x000000004a0106ca        0x2 
 .text.on_console
                0x000000004a0106cc       0x78 common/built-in.o
 .text.serial_printf
                0x000000004a010744       0x32 common/built-in.o
                0x000000004a010744                serial_printf
 *fill*         0x000000004a010776        0x2 
 .text.console_getc.isra.2
                0x000000004a010778       0x18 common/built-in.o
 .text.tstc     0x000000004a010790       0x1a common/built-in.o
                0x000000004a010790                tstc
 .text.putc     0x000000004a0107aa       0x34 common/built-in.o
                0x000000004a0107aa                putc
 *fill*         0x000000004a0107de        0x2 
 .text.getc     0x000000004a0107e0       0x34 common/built-in.o
                0x000000004a0107e0                getc
 .text.puts     0x000000004a010814       0x48 common/built-in.o
                0x000000004a010814                puts
 .text.print_pre_console_buffer
                0x000000004a01085c       0xb8 common/built-in.o
 .text.fputs    0x000000004a010914        0xa common/built-in.o
                0x000000004a010914                fputs
 *fill*         0x000000004a01091e        0x2 
 .text.ctrlc    0x000000004a010920       0x38 common/built-in.o
                0x000000004a010920                ctrlc
 .text.disable_ctrlc
                0x000000004a010958       0x10 common/built-in.o
                0x000000004a010958                disable_ctrlc
 .text.had_ctrlc
                0x000000004a010968        0xc common/built-in.o
                0x000000004a010968                had_ctrlc
 .text.clear_ctrlc
                0x000000004a010974        0xc common/built-in.o
                0x000000004a010974                clear_ctrlc
 .text.search_device
                0x000000004a010980       0x16 common/built-in.o
                0x000000004a010980                search_device
 *fill*         0x000000004a010996        0x2 
 .text.console_assign
                0x000000004a010998       0x84 common/built-in.o
                0x000000004a010998                console_assign
 .text.console_init_f
                0x000000004a010a1c       0x12 common/built-in.o
                0x000000004a010a1c                console_init_f
 *fill*         0x000000004a010a2e        0x2 
 .text.stdio_print_current_devices
                0x000000004a010a30       0x78 common/built-in.o
                0x000000004a010a30                stdio_print_current_devices
 .text.console_init_r
                0x000000004a010aa8      0x124 common/built-in.o
                0x000000004a010aa8                console_init_r
 .text.sbrk     0x000000004a010bcc       0x44 common/built-in.o
                0x000000004a010bcc                sbrk
 .text.mem_malloc_init
                0x000000004a010c10       0x1c common/built-in.o
                0x000000004a010c10                mem_malloc_init
 .text.malloc_trim
                0x000000004a010c2c       0x80 common/built-in.o
                0x000000004a010c2c                malloc_trim
 .text.free     0x000000004a010cac      0x160 common/built-in.o
                0x000000004a010cac                free
 .text.malloc   0x000000004a010e0c      0x40c common/built-in.o
                0x000000004a010e0c                malloc
 .text.calloc   0x000000004a011218       0x96 common/built-in.o
                0x000000004a011218                calloc
 *fill*         0x000000004a0112ae        0x2 
 .text.realloc  0x000000004a0112b0      0x2e4 common/built-in.o
                0x000000004a0112b0                realloc
 .text.memalign
                0x000000004a011594      0x10a common/built-in.o
                0x000000004a011594                memalign
 .text.initf_malloc
                0x000000004a01169e       0x14 common/built-in.o
                0x000000004a01169e                initf_malloc
 .text.malloc_simple
                0x000000004a0116b2       0x28 common/built-in.o
                0x000000004a0116b2                malloc_simple
 *fill*         0x000000004a0116da        0x2 
 .text.on_loadaddr
                0x000000004a0116dc       0x20 common/built-in.o
 .text.image_check_hcrc
                0x000000004a0116fc       0x2a common/built-in.o
                0x000000004a0116fc                image_check_hcrc
 .text.image_check_dcrc
                0x000000004a011726       0x22 common/built-in.o
                0x000000004a011726                image_check_dcrc
 .text.image_multi_count
                0x000000004a011748       0x12 common/built-in.o
                0x000000004a011748                image_multi_count
 .text.image_multi_getimg
                0x000000004a01175a       0x4e common/built-in.o
                0x000000004a01175a                image_multi_getimg
 .text.env_get_bootm_low
                0x000000004a0117a8       0x20 common/built-in.o
                0x000000004a0117a8                env_get_bootm_low
 .text.env_get_bootm_size
                0x000000004a0117c8       0x44 common/built-in.o
                0x000000004a0117c8                env_get_bootm_size
 .text.env_get_bootm_mapsize
                0x000000004a01180c       0x20 common/built-in.o
                0x000000004a01180c                env_get_bootm_mapsize
 .text.memmove_wd
                0x000000004a01182c        0xa common/built-in.o
                0x000000004a01182c                memmove_wd
 *fill*         0x000000004a011836        0x2 
 .text.genimg_print_size
                0x000000004a011838       0x24 common/built-in.o
                0x000000004a011838                genimg_print_size
 .text.get_table_entry
                0x000000004a01185c       0x12 common/built-in.o
                0x000000004a01185c                get_table_entry
 .text.get_table_entry_name
                0x000000004a01186e       0x14 common/built-in.o
                0x000000004a01186e                get_table_entry_name
 *fill*         0x000000004a011882        0x2 
 .text.genimg_get_os_name
                0x000000004a011884       0x14 common/built-in.o
                0x000000004a011884                genimg_get_os_name
 .text.genimg_get_arch_name
                0x000000004a011898       0x14 common/built-in.o
                0x000000004a011898                genimg_get_arch_name
 .text.genimg_get_type_name
                0x000000004a0118ac       0x14 common/built-in.o
                0x000000004a0118ac                genimg_get_type_name
 .text.genimg_get_comp_name
                0x000000004a0118c0       0x14 common/built-in.o
                0x000000004a0118c0                genimg_get_comp_name
 .text.image_print_contents
                0x000000004a0118d4      0x108 common/built-in.o
                0x000000004a0118d4                image_print_contents
 .text.genimg_get_kernel_addr_fit
                0x000000004a0119dc       0x14 common/built-in.o
                0x000000004a0119dc                genimg_get_kernel_addr_fit
 .text.genimg_get_kernel_addr
                0x000000004a0119f0       0x16 common/built-in.o
                0x000000004a0119f0                genimg_get_kernel_addr
 *fill*         0x000000004a011a06        0x2 
 .text.genimg_get_format
                0x000000004a011a08       0x20 common/built-in.o
                0x000000004a011a08                genimg_get_format
 .text.genimg_has_config
                0x000000004a011a28        0x4 common/built-in.o
                0x000000004a011a28                genimg_has_config
 .text.boot_get_ramdisk
                0x000000004a011a2c      0x1a4 common/built-in.o
                0x000000004a011a2c                boot_get_ramdisk
 .text.boot_ramdisk_high
                0x000000004a011bd0       0xc4 common/built-in.o
                0x000000004a011bd0                boot_ramdisk_high
 .text.boot_get_setup
                0x000000004a011c94        0x6 common/built-in.o
                0x000000004a011c94                boot_get_setup
 .text.image_setup_linux
                0x000000004a011c9a       0x3e common/built-in.o
                0x000000004a011c9a                image_setup_linux
 .text.fdt_error
                0x000000004a011cd8       0x24 common/built-in.o
 .text.boot_fdt_add_mem_rsv_regions
                0x000000004a011cfc       0x54 common/built-in.o
                0x000000004a011cfc                boot_fdt_add_mem_rsv_regions
 .text.boot_relocate_fdt
                0x000000004a011d50      0x108 common/built-in.o
                0x000000004a011d50                boot_relocate_fdt
 .text.boot_get_fdt
                0x000000004a011e58      0x1a8 common/built-in.o
                0x000000004a011e58                boot_get_fdt
 .text.ft_verify_fdt
                0x000000004a012000        0x4 common/built-in.o
                0x000000004a012000                ft_verify_fdt
 .text.image_setup_libfdt
                0x000000004a012004       0xc8 common/built-in.o
                0x000000004a012004                image_setup_libfdt
 .text.get_ram_size
                0x000000004a0120cc       0x8e common/built-in.o
                0x000000004a0120cc                get_ram_size
 .text.get_effective_memsize
                0x000000004a01215a        0x6 common/built-in.o
                0x000000004a01215a                get_effective_memsize
 .text.nulldev_putc
                0x000000004a012160        0x2 common/built-in.o
 .text.nulldev_puts
                0x000000004a012162        0x2 common/built-in.o
 .text.nulldev_input
                0x000000004a012164        0x4 common/built-in.o
 .text.stdio_serial_tstc
                0x000000004a012168        0x4 common/built-in.o
 .text.stdio_serial_getc
                0x000000004a01216c        0x4 common/built-in.o
 .text.stdio_serial_puts
                0x000000004a012170        0x6 common/built-in.o
 .text.stdio_serial_putc
                0x000000004a012176        0x6 common/built-in.o
 .text.stdio_get_list
                0x000000004a01217c        0x8 common/built-in.o
                0x000000004a01217c                stdio_get_list
 .text.stdio_get_by_name
                0x000000004a012184       0x30 common/built-in.o
                0x000000004a012184                stdio_get_by_name
 .text.stdio_clone
                0x000000004a0121b4       0x22 common/built-in.o
                0x000000004a0121b4                stdio_clone
 *fill*         0x000000004a0121d6        0x2 
 .text.stdio_register_dev
                0x000000004a0121d8       0x30 common/built-in.o
                0x000000004a0121d8                stdio_register_dev
 .text.stdio_register
                0x000000004a012208        0x6 common/built-in.o
                0x000000004a012208                stdio_register
 *fill*         0x000000004a01220e        0x2 
 .text.stdio_deregister_dev
                0x000000004a012210       0xa0 common/built-in.o
                0x000000004a012210                stdio_deregister_dev
 .text.stdio_init_tables
                0x000000004a0122b0       0x14 common/built-in.o
                0x000000004a0122b0                stdio_init_tables
 .text.stdio_add_devices
                0x000000004a0122c4       0xbc common/built-in.o
                0x000000004a0122c4                stdio_add_devices
 .text.run_command
                0x000000004a012380        0xe common/built-in.o
                0x000000004a012380                run_command
 .text.run_command_list
                0x000000004a01238e       0x46 common/built-in.o
                0x000000004a01238e                run_command_list
 .text.do_run   0x000000004a0123d4       0x50 common/built-in.o
                0x000000004a0123d4                do_run
 .text.cli_process_fdt
                0x000000004a012424       0x30 common/built-in.o
                0x000000004a012424                cli_process_fdt
 .text.cli_secure_boot_cmd
                0x000000004a012454       0x4c common/built-in.o
                0x000000004a012454                cli_secure_boot_cmd
 .text.cli_loop
                0x000000004a0124a0        0x8 common/built-in.o
                0x000000004a0124a0                cli_loop
 .text.cli_init
                0x000000004a0124a8        0x4 common/built-in.o
                0x000000004a0124a8                cli_init
 .text.find_cmd_tbl
                0x000000004a0124ac       0x64 common/built-in.o
                0x000000004a0124ac                find_cmd_tbl
 .text.find_cmd
                0x000000004a012510       0x1c common/built-in.o
                0x000000004a012510                find_cmd
 .text.cmd_usage
                0x000000004a01252c       0x3c common/built-in.o
                0x000000004a01252c                cmd_usage
 .text._do_help
                0x000000004a012568      0x104 common/built-in.o
                0x000000004a012568                _do_help
 .text.var_complete
                0x000000004a01266c       0x40 common/built-in.o
                0x000000004a01266c                var_complete
 .text.cmd_auto_complete
                0x000000004a0126ac      0x300 common/built-in.o
                0x000000004a0126ac                cmd_auto_complete
 .text.cmd_get_data_size
                0x000000004a0129ac       0x38 common/built-in.o
                0x000000004a0129ac                cmd_get_data_size
 .text.cmd_process
                0x000000004a0129e4       0x98 common/built-in.o
                0x000000004a0129e4                cmd_process
 .text.cmd_process_error
                0x000000004a012a7c       0x1c common/built-in.o
                0x000000004a012a7c                cmd_process_error
 .text.hex1_bin
                0x000000004a012a98       0x2a common/built-in.o
 .text.hex2_bin
                0x000000004a012ac2       0x24 common/built-in.o
 .text.srec_decode
                0x000000004a012ae6      0x182 common/built-in.o
                0x000000004a012ae6                srec_decode
 .text.CYGACC_COMM_IF_GETC_TIMEOUT.isra.0
                0x000000004a012c68       0x2e common/built-in.o
 .text.xyzModem_flush
                0x000000004a012c96       0x14 common/built-in.o
 *fill*         0x000000004a012caa        0x2 
 .text.xyzModem_get_hdr
                0x000000004a012cac      0x178 common/built-in.o
 .text.xyzModem_stream_open
                0x000000004a012e24      0x178 common/built-in.o
                0x000000004a012e24                xyzModem_stream_open
 .text.xyzModem_stream_read
                0x000000004a012f9c      0x1c0 common/built-in.o
                0x000000004a012f9c                xyzModem_stream_read
 .text.xyzModem_stream_close
                0x000000004a01315c       0x40 common/built-in.o
                0x000000004a01315c                xyzModem_stream_close
 .text.xyzModem_stream_terminate
                0x000000004a01319c       0x68 common/built-in.o
                0x000000004a01319c                xyzModem_stream_terminate
 .text.xyzModem_error
                0x000000004a013204       0x18 common/built-in.o
                0x000000004a013204                xyzModem_error
 .text.blk_get_dev
                0x000000004a01321c       0x1c disk/built-in.o
                0x000000004a01321c                blk_get_dev
 .text.dev_print
                0x000000004a013238      0x154 disk/built-in.o
                0x000000004a013238                dev_print
 .text.part_init
                0x000000004a01338c       0x2c disk/built-in.o
                0x000000004a01338c                part_init
 .text.part_print
                0x000000004a0133b8       0xc4 disk/built-in.o
                0x000000004a0133b8                part_print
 .text.part_get_info
                0x000000004a01347c       0x44 disk/built-in.o
                0x000000004a01347c                part_get_info
 .text.part_get_info_whole_disk
                0x000000004a0134c0       0x38 disk/built-in.o
                0x000000004a0134c0                part_get_info_whole_disk
 .text.blk_get_device_by_str
                0x000000004a0134f8       0xcc disk/built-in.o
                0x000000004a0134f8                blk_get_device_by_str
 .text.blk_get_device_part_str
                0x000000004a0135c4      0x244 disk/built-in.o
                0x000000004a0135c4                blk_get_device_part_str
 .text.part_set_generic_name
                0x000000004a013808       0x34 disk/built-in.o
                0x000000004a013808                part_set_generic_name
 .text.test_block_type
                0x000000004a01383c       0x50 disk/built-in.o
 .text.print_partition_extended
                0x000000004a01388c      0x1c4 disk/built-in.o
 .text.part_print_dos
                0x000000004a013a50       0x20 disk/built-in.o
                0x000000004a013a50                part_print_dos
 .text.part_test_dos
                0x000000004a013a70       0x4a disk/built-in.o
 *fill*         0x000000004a013aba        0x2 
 .text.part_get_info_extended
                0x000000004a013abc      0x204 disk/built-in.o
 .text.part_get_info_dos
                0x000000004a013cc0       0x18 disk/built-in.o
                0x000000004a013cc0                part_get_info_dos
 .text.iso_dread
                0x000000004a013cd8       0x22 disk/built-in.o
                0x000000004a013cd8                iso_dread
 *fill*         0x000000004a013cfa        0x2 
 .text.part_get_info_iso_verb
                0x000000004a013cfc      0x258 disk/built-in.o
                0x000000004a013cfc                part_get_info_iso_verb
 .text.part_test_iso
                0x000000004a013f54       0x14 disk/built-in.o
 .text.part_print_iso
                0x000000004a013f68       0x5c disk/built-in.o
 .text.part_get_info_iso
                0x000000004a013fc4        0x6 disk/built-in.o
 *fill*         0x000000004a013fca        0x2 
 .text.print_efiname
                0x000000004a013fcc       0x38 disk/built-in.o
 .text.part_test_efi
                0x000000004a014004       0x8a disk/built-in.o
 *fill*         0x000000004a01408e        0x2 
 .text.set_protective_mbr
                0x000000004a014090       0x94 disk/built-in.o
 .text.validate_gpt_entries
                0x000000004a014124       0x80 disk/built-in.o
 *fill*         0x000000004a0141a4        0x4 
 .text.validate_gpt_header
                0x000000004a0141a8      0x1a8 disk/built-in.o
 .text.is_gpt_valid
                0x000000004a014350      0x1b4 disk/built-in.o
 .text.is_pte_valid
                0x000000004a014504       0x38 disk/built-in.o
 .text.part_print_efi
                0x000000004a01453c      0x1f4 disk/built-in.o
                0x000000004a01453c                part_print_efi
 .text.part_get_info_efi
                0x000000004a014730      0x178 disk/built-in.o
                0x000000004a014730                part_get_info_efi
 .text.get_disk_guid
                0x000000004a0148a8       0xa8 disk/built-in.o
                0x000000004a0148a8                get_disk_guid
 .text.write_gpt_table
                0x000000004a014950      0x2d8 disk/built-in.o
                0x000000004a014950                write_gpt_table
 .text.gpt_fill_pte
                0x000000004a014c28      0x294 disk/built-in.o
                0x000000004a014c28                gpt_fill_pte
 .text.gpt_fill_header
                0x000000004a014ebc      0x1ac disk/built-in.o
                0x000000004a014ebc                gpt_fill_header
 .text.gpt_restore
                0x000000004a015068       0xc8 disk/built-in.o
                0x000000004a015068                gpt_restore
 .text.gpt_verify_headers
                0x000000004a015130       0x50 disk/built-in.o
                0x000000004a015130                gpt_verify_headers
 .text.gpt_verify_partitions
                0x000000004a015180      0x18c disk/built-in.o
                0x000000004a015180                gpt_verify_partitions
 .text.device_bind_common.isra.4
                0x000000004a01530c      0x21c drivers/built-in.o
 .text.alloc_priv
                0x000000004a015528       0x3c drivers/built-in.o
 .text.device_bind_with_driver_data
                0x000000004a015564       0x18 drivers/built-in.o
                0x000000004a015564                device_bind_with_driver_data
 .text.device_bind
                0x000000004a01557c       0x16 drivers/built-in.o
                0x000000004a01557c                device_bind
 .text.device_bind_by_name
                0x000000004a015592       0x44 drivers/built-in.o
                0x000000004a015592                device_bind_by_name
 *fill*         0x000000004a0155d6        0x2 
 .text.device_probe
                0x000000004a0155d8      0x134 drivers/built-in.o
                0x000000004a0155d8                device_probe
 .text.dev_get_platdata
                0x000000004a01570c       0x20 drivers/built-in.o
                0x000000004a01570c                dev_get_platdata
 .text.dev_get_parent_platdata
                0x000000004a01572c       0x20 drivers/built-in.o
                0x000000004a01572c                dev_get_parent_platdata
 .text.dev_get_uclass_platdata
                0x000000004a01574c       0x20 drivers/built-in.o
                0x000000004a01574c                dev_get_uclass_platdata
 .text.dev_get_priv
                0x000000004a01576c       0x20 drivers/built-in.o
                0x000000004a01576c                dev_get_priv
 .text.dev_get_uclass_priv
                0x000000004a01578c       0x20 drivers/built-in.o
                0x000000004a01578c                dev_get_uclass_priv
 .text.dev_get_parent_priv
                0x000000004a0157ac       0x20 drivers/built-in.o
                0x000000004a0157ac                dev_get_parent_priv
 .text.device_get_child
                0x000000004a0157cc       0x32 drivers/built-in.o
                0x000000004a0157cc                device_get_child
 .text.device_find_first_child
                0x000000004a0157fe       0x14 drivers/built-in.o
                0x000000004a0157fe                device_find_first_child
 .text.device_find_next_child
                0x000000004a015812       0x16 drivers/built-in.o
                0x000000004a015812                device_find_next_child
 .text.dev_get_parent
                0x000000004a015828        0x4 drivers/built-in.o
                0x000000004a015828                dev_get_parent
 .text.dev_get_driver_data
                0x000000004a01582c        0x4 drivers/built-in.o
                0x000000004a01582c                dev_get_driver_data
 .text.device_get_uclass_id
                0x000000004a015830        0x8 drivers/built-in.o
                0x000000004a015830                device_get_uclass_id
 .text.device_has_active_children
                0x000000004a015838       0x22 drivers/built-in.o
                0x000000004a015838                device_has_active_children
 .text.device_is_last_sibling
                0x000000004a01585a       0x14 drivers/built-in.o
                0x000000004a01585a                device_is_last_sibling
 *fill*         0x000000004a01586e        0x2 
 .text.devfdt_get_addr_index
                0x000000004a015870       0x70 drivers/built-in.o
                0x000000004a015870                devfdt_get_addr_index
 .text.devfdt_get_addr
                0x000000004a0158e0        0x6 drivers/built-in.o
                0x000000004a0158e0                devfdt_get_addr
 .text.devfdt_get_addr_ptr
                0x000000004a0158e6        0x6 drivers/built-in.o
                0x000000004a0158e6                devfdt_get_addr_ptr
 .text.lists_driver_lookup_name
                0x000000004a0158ec       0x2c drivers/built-in.o
                0x000000004a0158ec                lists_driver_lookup_name
 .text.lists_uclass_lookup
                0x000000004a015918       0x24 drivers/built-in.o
                0x000000004a015918                lists_uclass_lookup
 .text.lists_bind_drivers
                0x000000004a01593c       0x54 drivers/built-in.o
                0x000000004a01593c                lists_bind_drivers
 .text.device_bind_driver_to_node
                0x000000004a015990       0x2c drivers/built-in.o
                0x000000004a015990                device_bind_driver_to_node
 .text.device_bind_driver
                0x000000004a0159bc       0x12 drivers/built-in.o
                0x000000004a0159bc                device_bind_driver
 *fill*         0x000000004a0159ce        0x2 
 .text.lists_bind_fdt
                0x000000004a0159d0       0xe8 drivers/built-in.o
                0x000000004a0159d0                lists_bind_fdt
 .text.dm_scan_fdt_node
                0x000000004a015ab8       0x6c drivers/built-in.o
 .text.dm_root  0x000000004a015b24       0x1c drivers/built-in.o
                0x000000004a015b24                dm_root
 .text.dm_get_translation_offset
                0x000000004a015b40        0xe drivers/built-in.o
                0x000000004a015b40                dm_get_translation_offset
 *fill*         0x000000004a015b4e        0x2 
 .text.dm_init  0x000000004a015b50       0x4c drivers/built-in.o
                0x000000004a015b50                dm_init
 .text.dm_remove_devices_flags
                0x000000004a015b9c       0x12 drivers/built-in.o
                0x000000004a015b9c                dm_remove_devices_flags
 *fill*         0x000000004a015bae        0x2 
 .text.dm_scan_platdata
                0x000000004a015bb0       0x20 drivers/built-in.o
                0x000000004a015bb0                dm_scan_platdata
 .text.dm_scan_fdt_dev
                0x000000004a015bd0       0x1e drivers/built-in.o
                0x000000004a015bd0                dm_scan_fdt_dev
 .text.dm_scan_fdt
                0x000000004a015bee       0x10 drivers/built-in.o
                0x000000004a015bee                dm_scan_fdt
 *fill*         0x000000004a015bfe        0x2 
 .text.dm_extended_scan_fdt
                0x000000004a015c00       0x34 drivers/built-in.o
                0x000000004a015c00                dm_extended_scan_fdt
 .text.dm_scan_other
                0x000000004a015c34        0x4 drivers/built-in.o
                0x000000004a015c34                dm_scan_other
 .text.dm_init_and_scan
                0x000000004a015c38       0x2c drivers/built-in.o
                0x000000004a015c38                dm_init_and_scan
 .text.uclass_find
                0x000000004a015c64       0x2a drivers/built-in.o
                0x000000004a015c64                uclass_find
 .text.uclass_get
                0x000000004a015c8e       0xaa drivers/built-in.o
                0x000000004a015c8e                uclass_get
 .text.uclass_find_device
                0x000000004a015d38       0x40 drivers/built-in.o
                0x000000004a015d38                uclass_find_device
 .text.uclass_find_first_device
                0x000000004a015d78       0x22 drivers/built-in.o
                0x000000004a015d78                uclass_find_first_device
 .text.uclass_find_next_device
                0x000000004a015d9a       0x18 drivers/built-in.o
                0x000000004a015d9a                uclass_find_next_device
 .text.uclass_find_device_by_seq
                0x000000004a015db2       0x50 drivers/built-in.o
                0x000000004a015db2                uclass_find_device_by_seq
 .text.uclass_find_device_by_of_offset
                0x000000004a015e02       0x40 drivers/built-in.o
                0x000000004a015e02                uclass_find_device_by_of_offset
 .text.uclass_get_device_tail
                0x000000004a015e42       0x16 drivers/built-in.o
                0x000000004a015e42                uclass_get_device_tail
 .text.uclass_get_device
                0x000000004a015e58       0x1c drivers/built-in.o
                0x000000004a015e58                uclass_get_device
 .text.uclass_get_device_by_seq
                0x000000004a015e74       0x34 drivers/built-in.o
                0x000000004a015e74                uclass_get_device_by_seq
 .text.uclass_get_device_by_of_offset
                0x000000004a015ea8       0x1c drivers/built-in.o
                0x000000004a015ea8                uclass_get_device_by_of_offset
 .text.uclass_first_device
                0x000000004a015ec4       0x1e drivers/built-in.o
                0x000000004a015ec4                uclass_first_device
 .text.uclass_next_device
                0x000000004a015ee2       0x24 drivers/built-in.o
                0x000000004a015ee2                uclass_next_device
 .text.uclass_bind_device
                0x000000004a015f06       0x3a drivers/built-in.o
                0x000000004a015f06                uclass_bind_device
 .text.uclass_unbind_device
                0x000000004a015f40       0x26 drivers/built-in.o
                0x000000004a015f40                uclass_unbind_device
 *fill*         0x000000004a015f66        0x2 
 .text.uclass_resolve_seq
                0x000000004a015f68       0x64 drivers/built-in.o
                0x000000004a015f68                uclass_resolve_seq
 .text.uclass_pre_probe_device
                0x000000004a015fcc       0x2e drivers/built-in.o
                0x000000004a015fcc                uclass_pre_probe_device
 .text.uclass_post_probe_device
                0x000000004a015ffa        0xe drivers/built-in.o
                0x000000004a015ffa                uclass_post_probe_device
 .text.uclass_pre_remove_device
                0x000000004a016008        0xe drivers/built-in.o
                0x000000004a016008                uclass_pre_remove_device
 .text.dm_warn  0x000000004a016016       0x1a drivers/built-in.o
                0x000000004a016016                dm_warn
 .text.dm_fdt_pre_reloc
                0x000000004a016030       0x44 drivers/built-in.o
                0x000000004a016030                dm_fdt_pre_reloc
 .text.device_unbind
                0x000000004a016074       0xb8 drivers/built-in.o
                0x000000004a016074                device_unbind
 .text.device_free
                0x000000004a01612c       0x44 drivers/built-in.o
                0x000000004a01612c                device_free
 .text.device_remove
                0x000000004a016170       0xec drivers/built-in.o
                0x000000004a016170                device_remove
 .text.simple_bus_post_bind
                0x000000004a01625c       0x34 drivers/built-in.o
 .text.show_devices
                0x000000004a016290       0xa0 drivers/built-in.o
 .text.dm_dump_all
                0x000000004a016330       0x30 drivers/built-in.o
                0x000000004a016330                dm_dump_all
 .text.dm_dump_uclass
                0x000000004a016360       0x8c drivers/built-in.o
                0x000000004a016360                dm_dump_uclass
 .text.ofnode_read_u32
                0x000000004a0163ec       0x30 drivers/built-in.o
                0x000000004a0163ec                ofnode_read_u32
 .text.ofnode_read_u32_default
                0x000000004a01641c       0x16 drivers/built-in.o
                0x000000004a01641c                ofnode_read_u32_default
 .text.ofnode_read_u32_array
                0x000000004a016432       0x1c drivers/built-in.o
                0x000000004a016432                ofnode_read_u32_array
 .text.ofnode_get_name
                0x000000004a01644e        0xc drivers/built-in.o
                0x000000004a01644e                ofnode_get_name
 .text.ofnode_path
                0x000000004a01645a        0xe drivers/built-in.o
                0x000000004a01645a                ofnode_path
 .text.ofnode_get_property
                0x000000004a016468       0x18 drivers/built-in.o
                0x000000004a016468                ofnode_get_property
 .text.get_desc
                0x000000004a016480       0x3a drivers/built-in.o
 *fill*         0x000000004a0164ba        0x2 
 .text.blk_driver_lookup_type
                0x000000004a0164bc       0x24 drivers/built-in.o
                0x000000004a0164bc                blk_driver_lookup_type
 .text.blk_get_if_type_name
                0x000000004a0164e0        0xc drivers/built-in.o
                0x000000004a0164e0                blk_get_if_type_name
 .text.blk_list_part
                0x000000004a0164ec       0x52 drivers/built-in.o
                0x000000004a0164ec                blk_list_part
 .text.blk_print_part_devnum
                0x000000004a01653e       0x36 drivers/built-in.o
                0x000000004a01653e                blk_print_part_devnum
 .text.blk_list_devices
                0x000000004a016574       0x40 drivers/built-in.o
                0x000000004a016574                blk_list_devices
 .text.blk_print_device_num
                0x000000004a0165b4       0x3c drivers/built-in.o
                0x000000004a0165b4                blk_print_device_num
 .text.blk_show_device
                0x000000004a0165f0       0x58 drivers/built-in.o
                0x000000004a0165f0                blk_show_device
 .text.blk_get_devnum_by_type
                0x000000004a016648       0x20 drivers/built-in.o
                0x000000004a016648                blk_get_devnum_by_type
 .text.blk_dselect_hwpart
                0x000000004a016668       0x26 drivers/built-in.o
                0x000000004a016668                blk_dselect_hwpart
 *fill*         0x000000004a01668e        0x2 
 .text.blk_get_devnum_by_typename
                0x000000004a016690       0x40 drivers/built-in.o
                0x000000004a016690                blk_get_devnum_by_typename
 .text.blk_read_devnum
                0x000000004a0166d0       0x2e drivers/built-in.o
                0x000000004a0166d0                blk_read_devnum
 .text.blk_write_devnum
                0x000000004a0166fe       0x2e drivers/built-in.o
                0x000000004a0166fe                blk_write_devnum
 .text.blk_select_hwpart_devnum
                0x000000004a01672c       0x2a drivers/built-in.o
                0x000000004a01672c                blk_select_hwpart_devnum
 .text.mmc_set_ios
                0x000000004a016756        0xc drivers/built-in.o
 .text.mmc_set_capacity
                0x000000004a016762       0x6e drivers/built-in.o
 .text.board_mmc_getwp
                0x000000004a0167d0        0x6 drivers/built-in.o
                0x000000004a0167d0                board_mmc_getwp
 .text.mmc_getwp
                0x000000004a0167d6       0x20 drivers/built-in.o
                0x000000004a0167d6                mmc_getwp
 .text.board_mmc_getcd
                0x000000004a0167f6        0x6 drivers/built-in.o
                0x000000004a0167f6                board_mmc_getcd
 .text.mmc_send_cmd
                0x000000004a0167fc        0x8 drivers/built-in.o
                0x000000004a0167fc                mmc_send_cmd
 .text.mmc_send_ext_csd
                0x000000004a016804       0x2e drivers/built-in.o
 .text.mmc_go_idle
                0x000000004a016832       0x32 drivers/built-in.o
 .text.mmc_send_op_cond_iter
                0x000000004a016864       0x44 drivers/built-in.o
 .text.mmc_send_status
                0x000000004a0168a8       0x84 drivers/built-in.o
                0x000000004a0168a8                mmc_send_status
 .text.mmc_set_blocklen
                0x000000004a01692c       0x26 drivers/built-in.o
                0x000000004a01692c                mmc_set_blocklen
 *fill*         0x000000004a016952        0x2 
 .text.mmc_bread
                0x000000004a016954       0xe0 drivers/built-in.o
                0x000000004a016954                mmc_bread
 .text.mmc_switch
                0x000000004a016a34       0x3e drivers/built-in.o
                0x000000004a016a34                mmc_switch
 .text.mmc_switch_part
                0x000000004a016a72       0x40 drivers/built-in.o
                0x000000004a016a72                mmc_switch_part
 *fill*         0x000000004a016ab2        0x2 
 .text.mmc_hwpart_config
                0x000000004a016ab4      0x2bc drivers/built-in.o
                0x000000004a016ab4                mmc_hwpart_config
 .text.mmc_getcd
                0x000000004a016d70       0x20 drivers/built-in.o
                0x000000004a016d70                mmc_getcd
 .text.mmc_set_clock
                0x000000004a016d90       0x1e drivers/built-in.o
                0x000000004a016d90                mmc_set_clock
 *fill*         0x000000004a016dae        0x2 
 .text.mmc_startup
                0x000000004a016db0      0x964 drivers/built-in.o
 .text.board_mmc_power_init
                0x000000004a017714        0x2 drivers/built-in.o
                0x000000004a017714                board_mmc_power_init
 *fill*         0x000000004a017716        0x2 
 .text.mmc_start_init
                0x000000004a017718      0x17c drivers/built-in.o
                0x000000004a017718                mmc_start_init
 .text.mmc_init
                0x000000004a017894       0xc8 drivers/built-in.o
                0x000000004a017894                mmc_init
 .text.mmc_set_dsr
                0x000000004a01795c        0x6 drivers/built-in.o
                0x000000004a01795c                mmc_set_dsr
 .text.cpu_mmc_init
                0x000000004a017962        0x6 drivers/built-in.o
                0x000000004a017962                cpu_mmc_init
 .text.mmc_initialize
                0x000000004a017968       0x34 drivers/built-in.o
                0x000000004a017968                mmc_initialize
 .text.find_mmc_device
                0x000000004a01799c       0x30 drivers/built-in.o
                0x000000004a01799c                find_mmc_device
 .text.mmc_select_hwpartp
                0x000000004a0179cc       0x36 drivers/built-in.o
 .text.mmc_get_dev
                0x000000004a017a02       0x1e drivers/built-in.o
 .text.mmc_get_next_devnum
                0x000000004a017a20       0x10 drivers/built-in.o
                0x000000004a017a20                mmc_get_next_devnum
 .text.mmc_get_blk_desc
                0x000000004a017a30        0x4 drivers/built-in.o
                0x000000004a017a30                mmc_get_blk_desc
 .text.get_mmc_num
                0x000000004a017a34        0xc drivers/built-in.o
                0x000000004a017a34                get_mmc_num
 .text.mmc_do_preinit
                0x000000004a017a40       0x24 drivers/built-in.o
                0x000000004a017a40                mmc_do_preinit
 .text.mmc_list_init
                0x000000004a017a64       0x18 drivers/built-in.o
                0x000000004a017a64                mmc_list_init
 .text.mmc_list_add
                0x000000004a017a7c       0x14 drivers/built-in.o
                0x000000004a017a7c                mmc_list_add
 .text.print_mmc_devices
                0x000000004a017a90       0x84 drivers/built-in.o
                0x000000004a017a90                print_mmc_devices
 .text.mmc_create
                0x000000004a017b14       0x88 drivers/built-in.o
                0x000000004a017b14                mmc_create
 .text.mmc_berase
                0x000000004a017b9c      0x11c drivers/built-in.o
                0x000000004a017b9c                mmc_berase
 .text.mmc_bwrite
                0x000000004a017cb8      0x100 drivers/built-in.o
                0x000000004a017cb8                mmc_bwrite
 .text.sunxi_mmc_core_init
                0x000000004a017db8       0x1a drivers/built-in.o
 *fill*         0x000000004a017dd2        0x2 
 .text.sunxi_mmc_getcd_gpio
                0x000000004a017dd4       0x24 drivers/built-in.o
 .text.sunxi_mmc_getcd_legacy
                0x000000004a017df8       0x1e drivers/built-in.o
 *fill*         0x000000004a017e16        0x2 
 .text.mmc_update_clk.isra.1
                0x000000004a017e18       0x4c drivers/built-in.o
 .text.mmc_rint_wait.isra.3
                0x000000004a017e64       0x3a drivers/built-in.o
 *fill*         0x000000004a017e9e        0x2 
 .text.sunxi_mmc_send_cmd_legacy
                0x000000004a017ea0      0x228 drivers/built-in.o
 .text.mmc_set_mod_clk
                0x000000004a0180c8       0xb4 drivers/built-in.o
 .text.sunxi_mmc_set_ios_legacy
                0x000000004a01817c       0x90 drivers/built-in.o
 .text.sunxi_mmc_init
                0x000000004a01820c      0x148 drivers/built-in.o
                0x000000004a01820c                sunxi_mmc_init
 .text.keyboard_start
                0x000000004a018354       0x10 drivers/built-in.o
 .text.keyboard_stop
                0x000000004a018364       0x10 drivers/built-in.o
 .text.keyboard_pre_probe
                0x000000004a018374       0x48 drivers/built-in.o
 .text.keyboard_tstc
                0x000000004a0183bc       0x2e drivers/built-in.o
 .text.keyboard_getc
                0x000000004a0183ea       0x2e drivers/built-in.o
 .text.input_tstc
                0x000000004a018418       0x28 drivers/built-in.o
                0x000000004a018418                input_tstc
 .text.input_getc
                0x000000004a018440       0x34 drivers/built-in.o
                0x000000004a018440                input_getc
 .text.input_init
                0x000000004a018474       0x14 drivers/built-in.o
                0x000000004a018474                input_init
 .text.get_function
                0x000000004a018488       0x5e drivers/gpio/built-in.o
 .text.gpio_to_device
                0x000000004a0184e6       0x48 drivers/gpio/built-in.o
 *fill*         0x000000004a01852e        0x2 
 .text.check_reserved
                0x000000004a018530       0x4c drivers/gpio/built-in.o
 .text.gpio_renumber
                0x000000004a01857c       0x44 drivers/gpio/built-in.o
 .text.gpio_pre_remove
                0x000000004a0185c0       0x32 drivers/gpio/built-in.o
 .text.gpio_post_probe
                0x000000004a0185f2       0x24 drivers/gpio/built-in.o
 *fill*         0x000000004a018616        0x2 
 .text.dm_gpio_lookup_name
                0x000000004a018618       0x9c drivers/gpio/built-in.o
                0x000000004a018618                dm_gpio_lookup_name
 .text.gpio_lookup_name
                0x000000004a0186b4       0x3c drivers/gpio/built-in.o
                0x000000004a0186b4                gpio_lookup_name
 .text.dm_gpio_request
                0x000000004a0186f0       0x64 drivers/gpio/built-in.o
                0x000000004a0186f0                dm_gpio_request
 .text.gpio_request
                0x000000004a018754       0x18 drivers/gpio/built-in.o
                0x000000004a018754                gpio_request
 .text._dm_gpio_free
                0x000000004a01876c       0x42 drivers/gpio/built-in.o
                0x000000004a01876c                _dm_gpio_free
 .text.gpio_free
                0x000000004a0187ae       0x18 drivers/gpio/built-in.o
                0x000000004a0187ae                gpio_free
 *fill*         0x000000004a0187c6        0x2 
 .text.gpio_direction_input
                0x000000004a0187c8       0x2c drivers/gpio/built-in.o
                0x000000004a0187c8                gpio_direction_input
 .text.gpio_direction_output
                0x000000004a0187f4       0x2c drivers/gpio/built-in.o
                0x000000004a0187f4                gpio_direction_output
 .text.dm_gpio_get_value
                0x000000004a018820       0x2c drivers/gpio/built-in.o
                0x000000004a018820                dm_gpio_get_value
 .text.gpio_get_value
                0x000000004a01884c       0x16 drivers/gpio/built-in.o
                0x000000004a01884c                gpio_get_value
 .text.gpio_get_bank_info
                0x000000004a018862       0x10 drivers/gpio/built-in.o
                0x000000004a018862                gpio_get_bank_info
 .text.gpio_get_function
                0x000000004a018872        0x8 drivers/gpio/built-in.o
                0x000000004a018872                gpio_get_function
 .text.gpio_get_raw_function
                0x000000004a01887a        0x8 drivers/gpio/built-in.o
                0x000000004a01887a                gpio_get_raw_function
 *fill*         0x000000004a018882        0x2 
 .text.gpio_get_status
                0x000000004a018884       0xc8 drivers/gpio/built-in.o
                0x000000004a018884                gpio_get_status
 .text.sunxi_gpio_set_value
                0x000000004a01894c       0x28 drivers/gpio/built-in.o
 .text.sunxi_gpio_get_value
                0x000000004a018974       0x1c drivers/gpio/built-in.o
 .text.sunxi_gpio_get_function
                0x000000004a018990       0x1e drivers/gpio/built-in.o
 .text.sunxi_gpio_direction_output
                0x000000004a0189ae       0x36 drivers/gpio/built-in.o
 .text.sunxi_gpio_direction_input
                0x000000004a0189e4       0x16 drivers/gpio/built-in.o
 .text.gpio_sunxi_probe
                0x000000004a0189fa       0x1e drivers/gpio/built-in.o
 .text.gpio_sunxi_bind
                0x000000004a018a18       0x86 drivers/gpio/built-in.o
 .text.sunxi_gpio_xlate
                0x000000004a018a9e       0x24 drivers/gpio/built-in.o
 .text.sunxi_name_to_gpio_bank
                0x000000004a018ac2       0x24 drivers/gpio/built-in.o
                0x000000004a018ac2                sunxi_name_to_gpio_bank
 .text.sunxi_name_to_gpio
                0x000000004a018ae6       0x16 drivers/gpio/built-in.o
                0x000000004a018ae6                sunxi_name_to_gpio
 .text.i2c_setup_offset
                0x000000004a018afc       0x3a drivers/i2c/built-in.o
 .text.dm_i2c_read
                0x000000004a018b36       0xea drivers/i2c/built-in.o
                0x000000004a018b36                dm_i2c_read
 .text.dm_i2c_write
                0x000000004a018c20      0x136 drivers/i2c/built-in.o
                0x000000004a018c20                dm_i2c_write
 *fill*         0x000000004a018d56        0x2 
 .text.i2c_get_chip
                0x000000004a018d58       0x9c drivers/i2c/built-in.o
                0x000000004a018d58                i2c_get_chip
 .text.i2c_get_chip_for_busnum
                0x000000004a018df4       0x26 drivers/i2c/built-in.o
                0x000000004a018df4                i2c_get_chip_for_busnum
 .text.dm_i2c_probe
                0x000000004a018e1a       0x5e drivers/i2c/built-in.o
                0x000000004a018e1a                dm_i2c_probe
 .text.dm_i2c_set_bus_speed
                0x000000004a018e78       0x26 drivers/i2c/built-in.o
                0x000000004a018e78                dm_i2c_set_bus_speed
 *fill*         0x000000004a018e9e        0x2 
 .text.i2c_post_probe
                0x000000004a018ea0       0x2c drivers/i2c/built-in.o
 .text.dm_i2c_get_bus_speed
                0x000000004a018ecc       0x1c drivers/i2c/built-in.o
                0x000000004a018ecc                dm_i2c_get_bus_speed
 .text.i2c_set_chip_flags
                0x000000004a018ee8       0x28 drivers/i2c/built-in.o
                0x000000004a018ee8                i2c_set_chip_flags
 .text.i2c_get_chip_flags
                0x000000004a018f10       0x10 drivers/i2c/built-in.o
                0x000000004a018f10                i2c_get_chip_flags
 .text.i2c_set_chip_offset_len
                0x000000004a018f20       0x16 drivers/i2c/built-in.o
                0x000000004a018f20                i2c_set_chip_offset_len
 .text.i2c_get_chip_offset_len
                0x000000004a018f36        0xa drivers/i2c/built-in.o
                0x000000004a018f36                i2c_get_chip_offset_len
 .text.i2c_deblock
                0x000000004a018f40       0x10 drivers/i2c/built-in.o
                0x000000004a018f40                i2c_deblock
 .text.i2c_chip_ofdata_to_platdata
                0x000000004a018f50       0x38 drivers/i2c/built-in.o
                0x000000004a018f50                i2c_chip_ofdata_to_platdata
 .text.i2c_child_post_bind
                0x000000004a018f88       0x1e drivers/i2c/built-in.o
 *fill*         0x000000004a018fa6        0x2 
 .text.__twsi_i2c_set_bus_speed
                0x000000004a018fa8       0x74 drivers/i2c/built-in.o
 .text.mvtwsi_i2c_set_bus_speed
                0x000000004a01901c       0x28 drivers/i2c/built-in.o
 .text.twsi_wait
                0x000000004a019044       0x70 drivers/i2c/built-in.o
 .text.i2c_begin
                0x000000004a0190b4       0x40 drivers/i2c/built-in.o
 .text.twsi_stop
                0x000000004a0190f4       0x54 drivers/i2c/built-in.o
 .text.mvtwsi_i2c_probe
                0x000000004a019148       0x5c drivers/i2c/built-in.o
 .text.mvtwsi_i2c_ofdata_to_platdata
                0x000000004a0191a4       0x60 drivers/i2c/built-in.o
 .text.mvtwsi_i2c_xfer
                0x000000004a019204      0x18c drivers/i2c/built-in.o
 .text.mvtwsi_i2c_probe_chip
                0x000000004a019390       0x4c drivers/i2c/built-in.o
 .text._serial_putc
                0x000000004a0193dc       0x22 drivers/serial/built-in.o
 .text.__serial_getc
                0x000000004a0193fe       0x1a drivers/serial/built-in.o
 .text.__serial_tstc
                0x000000004a019418       0x10 drivers/serial/built-in.o
 .text.serial_stub_putc
                0x000000004a019428        0x6 drivers/serial/built-in.o
 .text.serial_stub_getc
                0x000000004a01942e        0x6 drivers/serial/built-in.o
 .text.serial_stub_tstc
                0x000000004a019434        0x6 drivers/serial/built-in.o
 .text.serial_pre_remove
                0x000000004a01943a       0x18 drivers/serial/built-in.o
 *fill*         0x000000004a019452        0x2 
 .text.serial_post_probe
                0x000000004a019454       0x78 drivers/serial/built-in.o
 .text.serial_stub_puts
                0x000000004a0194cc       0x16 drivers/serial/built-in.o
 *fill*         0x000000004a0194e2        0x2 
 .text.serial_init
                0x000000004a0194e4       0xcc drivers/serial/built-in.o
                0x000000004a0194e4                serial_init
 .text.serial_initialize
                0x000000004a0195b0        0x4 drivers/serial/built-in.o
                0x000000004a0195b0                serial_initialize
 .text.serial_putc
                0x000000004a0195b4       0x12 drivers/serial/built-in.o
                0x000000004a0195b4                serial_putc
 .text.serial_puts
                0x000000004a0195c6       0x1e drivers/serial/built-in.o
                0x000000004a0195c6                serial_puts
 .text.serial_getc
                0x000000004a0195e4       0x10 drivers/serial/built-in.o
                0x000000004a0195e4                serial_getc
 .text.serial_tstc
                0x000000004a0195f4       0x10 drivers/serial/built-in.o
                0x000000004a0195f4                serial_tstc
 .text.serial_setbrg
                0x000000004a019604       0x1e drivers/serial/built-in.o
                0x000000004a019604                serial_setbrg
 *fill*         0x000000004a019622        0x2 
 .text.on_baudrate
                0x000000004a019624       0x9c drivers/serial/built-in.o
 .text.serial_stdio_init
                0x000000004a0196c0        0x2 drivers/serial/built-in.o
                0x000000004a0196c0                serial_stdio_init
 *fill*         0x000000004a0196c2        0x2 
 .text.ns16550_serial_ofdata_to_platdata
                0x000000004a0196c4       0x6c drivers/serial/built-in.o
                0x000000004a0196c4                ns16550_serial_ofdata_to_platdata
 .text.ns16550_writeb.isra.5
                0x000000004a019730       0x14 drivers/serial/built-in.o
 .text.NS16550_setbrg
                0x000000004a019744       0x34 drivers/serial/built-in.o
 .text.ns16550_serial_setbrg
                0x000000004a019778       0x24 drivers/serial/built-in.o
 .text.ns16550_readb.isra.6
                0x000000004a01979c       0x14 drivers/serial/built-in.o
 .text.ns16550_serial_pending
                0x000000004a0197b0       0x28 drivers/serial/built-in.o
 .text.ns16550_serial_putc
                0x000000004a0197d8       0x2a drivers/serial/built-in.o
 .text.ns16550_serial_getc
                0x000000004a019802       0x26 drivers/serial/built-in.o
 .text.NS16550_init
                0x000000004a019828       0x42 drivers/serial/built-in.o
                0x000000004a019828                NS16550_init
 .text.ns16550_serial_probe
                0x000000004a01986a       0x20 drivers/serial/built-in.o
                0x000000004a01986a                ns16550_serial_probe
 .text.usb_match_device
                0x000000004a01988a       0x7c drivers/usb/host/built-in.o
 *fill*         0x000000004a019906        0x2 
 .text.usb_child_post_bind
                0x000000004a019908       0x54 drivers/usb/host/built-in.o
 .text.usb_match_one_id_intf.isra.2
                0x000000004a01995c       0x50 drivers/usb/host/built-in.o
 .text.remove_inactive_children.isra.4
                0x000000004a0199ac       0x48 drivers/usb/host/built-in.o
 .text.usb_disable_asynch
                0x000000004a0199f4       0x14 drivers/usb/host/built-in.o
                0x000000004a0199f4                usb_disable_asynch
 .text.submit_int_msg
                0x000000004a019a08       0x2c drivers/usb/host/built-in.o
                0x000000004a019a08                submit_int_msg
 .text.submit_control_msg
                0x000000004a019a34       0x52 drivers/usb/host/built-in.o
                0x000000004a019a34                submit_control_msg
 .text.submit_bulk_msg
                0x000000004a019a86       0x28 drivers/usb/host/built-in.o
                0x000000004a019a86                submit_bulk_msg
 .text.create_int_queue
                0x000000004a019aae       0x30 drivers/usb/host/built-in.o
                0x000000004a019aae                create_int_queue
 .text.poll_int_queue
                0x000000004a019ade       0x1e drivers/usb/host/built-in.o
                0x000000004a019ade                poll_int_queue
 .text.destroy_int_queue
                0x000000004a019afc       0x20 drivers/usb/host/built-in.o
                0x000000004a019afc                destroy_int_queue
 .text.usb_alloc_device
                0x000000004a019b1c       0x14 drivers/usb/host/built-in.o
                0x000000004a019b1c                usb_alloc_device
 .text.usb_reset_root_port
                0x000000004a019b30       0x16 drivers/usb/host/built-in.o
                0x000000004a019b30                usb_reset_root_port
 .text.usb_update_hub_device
                0x000000004a019b46       0x16 drivers/usb/host/built-in.o
                0x000000004a019b46                usb_update_hub_device
 .text.usb_get_max_xfer_size
                0x000000004a019b5c       0x14 drivers/usb/host/built-in.o
                0x000000004a019b5c                usb_get_max_xfer_size
 .text.usb_stop
                0x000000004a019b70       0x68 drivers/usb/host/built-in.o
                0x000000004a019b70                usb_stop
 .text.usb_get_bus
                0x000000004a019bd8       0x18 drivers/usb/host/built-in.o
                0x000000004a019bd8                usb_get_bus
 .text.usb_scan_device
                0x000000004a019bf0      0x1c0 drivers/usb/host/built-in.o
                0x000000004a019bf0                usb_scan_device
 .text.usb_scan_bus.isra.5
                0x000000004a019db0       0x4c drivers/usb/host/built-in.o
 .text.usb_init
                0x000000004a019dfc      0x11c drivers/usb/host/built-in.o
                0x000000004a019dfc                usb_init
 .text.usb_child_pre_probe
                0x000000004a019f18       0x46 drivers/usb/host/built-in.o
                0x000000004a019f18                usb_child_pre_probe
 .text.env_get_yesno
                0x000000004a019f5e       0x2a env/built-in.o
                0x000000004a019f5e                env_get_yesno
 .text.env_get_default
                0x000000004a019f88       0x2a env/built-in.o
                0x000000004a019f88                env_get_default
 *fill*         0x000000004a019fb2        0x2 
 .text.set_default_env
                0x000000004a019fb4       0x7c env/built-in.o
                0x000000004a019fb4                set_default_env
 .text.set_default_vars
                0x000000004a01a030       0x28 env/built-in.o
                0x000000004a01a030                set_default_vars
 .text.env_import
                0x000000004a01a058       0x84 env/built-in.o
                0x000000004a01a058                env_import
 .text.env_export
                0x000000004a01a0dc       0x58 env/built-in.o
                0x000000004a01a0dc                env_export
 .text.env_relocate
                0x000000004a01a134       0x28 env/built-in.o
                0x000000004a01a134                env_relocate
 .text.env_complete
                0x000000004a01a15c       0x90 env/built-in.o
                0x000000004a01a15c                env_complete
 .text.env_driver_lookup_default
                0x000000004a01a1ec       0x20 env/built-in.o
                0x000000004a01a1ec                env_driver_lookup_default
 .text.env_get_char
                0x000000004a01a20c       0x34 env/built-in.o
                0x000000004a01a20c                env_get_char
 .text.env_load
                0x000000004a01a240       0x18 env/built-in.o
                0x000000004a01a240                env_load
 .text.env_save
                0x000000004a01a258       0x1e env/built-in.o
                0x000000004a01a258                env_save
 *fill*         0x000000004a01a276        0x2 
 .text.env_init
                0x000000004a01a278       0x30 env/built-in.o
                0x000000004a01a278                env_init
 .text.regex_callback
                0x000000004a01a2a8       0xdc env/built-in.o
 .text.env_attr_walk
                0x000000004a01a384       0xb4 env/built-in.o
                0x000000004a01a384                env_attr_walk
 .text.env_attr_lookup
                0x000000004a01a438       0x50 env/built-in.o
                0x000000004a01a438                env_attr_lookup
 .text.clear_callback
                0x000000004a01a488        0x8 env/built-in.o
 .text.find_env_callback
                0x000000004a01a490       0x40 env/built-in.o
 .text.on_callbacks
                0x000000004a01a4d0       0x38 env/built-in.o
 .text.set_callback
                0x000000004a01a508       0x50 env/built-in.o
 .text.env_callback_init
                0x000000004a01a558       0x78 env/built-in.o
                0x000000004a01a558                env_callback_init
 .text.skip_num
                0x000000004a01a5d0       0x44 env/built-in.o
 .text.clear_flags
                0x000000004a01a614        0x8 env/built-in.o
 .text.on_flags
                0x000000004a01a61c       0x38 env/built-in.o
 .text.env_flags_parse_vartype
                0x000000004a01a654       0x30 env/built-in.o
                0x000000004a01a654                env_flags_parse_vartype
 .text.env_flags_parse_varaccess
                0x000000004a01a684       0x38 env/built-in.o
                0x000000004a01a684                env_flags_parse_varaccess
 .text.set_flags
                0x000000004a01a6bc       0x68 env/built-in.o
 .text.eth_validate_ethaddr_str
                0x000000004a01a724       0x50 env/built-in.o
                0x000000004a01a724                eth_validate_ethaddr_str
 .text.env_flags_init
                0x000000004a01a774       0x90 env/built-in.o
                0x000000004a01a774                env_flags_init
 .text.env_flags_validate
                0x000000004a01a804      0x1b8 env/built-in.o
                0x000000004a01a804                env_flags_validate
 .text.mmc_get_env_addr
                0x000000004a01a9bc       0xac env/built-in.o
                0x000000004a01a9bc                mmc_get_env_addr
 .text.mmc_get_env_dev
                0x000000004a01aa68        0x4 env/built-in.o
                0x000000004a01aa68                mmc_get_env_dev
 .text.env_mmc_save
                0x000000004a01aa6c       0xd8 env/built-in.o
 .text.env_mmc_load
                0x000000004a01ab44       0xb4 env/built-in.o
 .text.fs_probe_unsupported
                0x000000004a01abf8       0x14 fs/built-in.o
 .text.fs_ls_unsupported
                0x000000004a01ac0c        0x6 fs/built-in.o
 .text.fs_exists_unsupported
                0x000000004a01ac12        0x4 fs/built-in.o
 .text.fs_size_unsupported
                0x000000004a01ac16        0x6 fs/built-in.o
 .text.fs_read_unsupported
                0x000000004a01ac1c        0x6 fs/built-in.o
 .text.fs_write_unsupported
                0x000000004a01ac22        0x6 fs/built-in.o
 .text.fs_close_unsupported
                0x000000004a01ac28        0x2 fs/built-in.o
 .text.fs_uuid_unsupported
                0x000000004a01ac2a        0x6 fs/built-in.o
 .text.fs_opendir_unsupported
                0x000000004a01ac30        0x6 fs/built-in.o
 *fill*         0x000000004a01ac36        0x2 
 .text.fs_get_info
                0x000000004a01ac38       0x28 fs/built-in.o
 .text.fs_close
                0x000000004a01ac60       0x18 fs/built-in.o
 .text.fs_set_blk_dev
                0x000000004a01ac78       0x6c fs/built-in.o
                0x000000004a01ac78                fs_set_blk_dev
 .text.fs_set_blk_dev_with_part
                0x000000004a01ace4       0x58 fs/built-in.o
                0x000000004a01ace4                fs_set_blk_dev_with_part
 .text.fs_ls    0x000000004a01ad3c       0x24 fs/built-in.o
                0x000000004a01ad3c                fs_ls
 .text.fs_exists
                0x000000004a01ad60       0x20 fs/built-in.o
                0x000000004a01ad60                fs_exists
 .text.fs_size  0x000000004a01ad80       0x24 fs/built-in.o
                0x000000004a01ad80                fs_size
 .text.fs_read  0x000000004a01ada4       0x60 fs/built-in.o
                0x000000004a01ada4                fs_read
 .text.fs_write
                0x000000004a01ae04       0x60 fs/built-in.o
                0x000000004a01ae04                fs_write
 .text.fs_opendir
                0x000000004a01ae64       0x50 fs/built-in.o
                0x000000004a01ae64                fs_opendir
 .text.fs_readdir
                0x000000004a01aeb4       0x3c fs/built-in.o
                0x000000004a01aeb4                fs_readdir
 .text.fs_closedir
                0x000000004a01aef0       0x28 fs/built-in.o
                0x000000004a01aef0                fs_closedir
 .text.fs_ls_generic
                0x000000004a01af18       0x74 fs/built-in.o
 .text.do_size  0x000000004a01af8c       0x40 fs/built-in.o
                0x000000004a01af8c                do_size
 .text.do_load  0x000000004a01afcc      0x184 fs/built-in.o
                0x000000004a01afcc                do_load
 .text.do_ls    0x000000004a01b150       0x40 fs/built-in.o
                0x000000004a01b150                do_ls
 .text.file_exists
                0x000000004a01b190       0x1a fs/built-in.o
                0x000000004a01b190                file_exists
 *fill*         0x000000004a01b1aa        0x2 
 .text.do_save  0x000000004a01b1ac      0x100 fs/built-in.o
                0x000000004a01b1ac                do_save
 .text.do_fs_type
                0x000000004a01b2ac       0x50 fs/built-in.o
                0x000000004a01b2ac                do_fs_type
 .text.get_fs   0x000000004a01b2fc        0x8 fs/built-in.o
                0x000000004a01b2fc                get_fs
 .text.ext4fs_free_node
                0x000000004a01b304       0x1c fs/built-in.o
                0x000000004a01b304                ext4fs_free_node
 .text.ext4fs_read_file
                0x000000004a01b320      0x278 fs/built-in.o
                0x000000004a01b320                ext4fs_read_file
 .text.ext4fs_ls
                0x000000004a01b598       0x58 fs/built-in.o
                0x000000004a01b598                ext4fs_ls
 .text.ext4fs_exists
                0x000000004a01b5f0       0x14 fs/built-in.o
                0x000000004a01b5f0                ext4fs_exists
 .text.ext4fs_size
                0x000000004a01b604        0x4 fs/built-in.o
                0x000000004a01b604                ext4fs_size
 .text.ext4fs_read
                0x000000004a01b608       0x38 fs/built-in.o
                0x000000004a01b608                ext4fs_read
 .text.ext4fs_probe
                0x000000004a01b640       0x1e fs/built-in.o
                0x000000004a01b640                ext4fs_probe
 *fill*         0x000000004a01b65e        0x2 
 .text.ext4_read_file
                0x000000004a01b660       0x50 fs/built-in.o
                0x000000004a01b660                ext4_read_file
 .text.ext4fs_uuid
                0x000000004a01b6b0       0x20 fs/built-in.o
                0x000000004a01b6b0                ext4fs_uuid
 .text.ext4fs_bg_get_inode_table_id
                0x000000004a01b6d0       0x1a fs/built-in.o
                0x000000004a01b6d0                ext4fs_bg_get_inode_table_id
 .text.ext4fs_read_inode
                0x000000004a01b6ea       0xe0 fs/built-in.o
                0x000000004a01b6ea                ext4fs_read_inode
 *fill*         0x000000004a01b7ca        0x2 
 .text.read_allocated_block
                0x000000004a01b7cc      0x620 fs/built-in.o
                0x000000004a01b7cc                read_allocated_block
 .text.ext4fs_reinit_global
                0x000000004a01bdec       0x78 fs/built-in.o
                0x000000004a01bdec                ext4fs_reinit_global
 .text.ext4fs_close
                0x000000004a01be64       0x38 fs/built-in.o
                0x000000004a01be64                ext4fs_close
 .text.ext4fs_iterate_dir
                0x000000004a01be9c      0x1d8 fs/built-in.o
                0x000000004a01be9c                ext4fs_iterate_dir
 .text.ext4fs_find_file1
                0x000000004a01c074      0x1bc fs/built-in.o
 .text.ext4fs_find_file
                0x000000004a01c230       0x40 fs/built-in.o
                0x000000004a01c230                ext4fs_find_file
 .text.ext4fs_open
                0x000000004a01c270       0x64 fs/built-in.o
                0x000000004a01c270                ext4fs_open
 .text.ext4fs_mount
                0x000000004a01c2d4       0x98 fs/built-in.o
                0x000000004a01c2d4                ext4fs_mount
 .text.ext4fs_set_blk_dev
                0x000000004a01c36c       0x4c fs/built-in.o
                0x000000004a01c36c                ext4fs_set_blk_dev
 .text.ext4fs_devread
                0x000000004a01c3b8       0x28 fs/built-in.o
                0x000000004a01c3b8                ext4fs_devread
 .text.ext4_read_superblock
                0x000000004a01c3e0       0x2a fs/built-in.o
                0x000000004a01c3e0                ext4_read_superblock
 *fill*         0x000000004a01c40a        0x2 
 .text.downcase
                0x000000004a01c40c       0x24 fs/built-in.o
 .text.disk_read
                0x000000004a01c430       0x30 fs/built-in.o
 .text.mkcksum  0x000000004a01c460       0x36 fs/built-in.o
 *fill*         0x000000004a01c496        0x2 
 .text.disk_write
                0x000000004a01c498       0x4c fs/built-in.o
 .text.flush_dirty_fat_buffer
                0x000000004a01c4e4       0x60 fs/built-in.o
 .text.set_fatent_value
                0x000000004a01c544      0x138 fs/built-in.o
 .text.get_fatent
                0x000000004a01c67c       0xf8 fs/built-in.o
 .text.next_dent
                0x000000004a01c774       0xb0 fs/built-in.o
 .text.find_empty_cluster
                0x000000004a01c824       0x18 fs/built-in.o
 .text.get_name
                0x000000004a01c83c       0x80 fs/built-in.o
 .text.get_cluster
                0x000000004a01c8bc       0xf4 fs/built-in.o
 .text.set_cluster
                0x000000004a01c9b0       0xf8 fs/built-in.o
 .text.read_bootsectandvi
                0x000000004a01caa8       0xc0 fs/built-in.o
 .text.fat_itr_root
                0x000000004a01cb68       0xe8 fs/built-in.o
 .text.set_name
                0x000000004a01cc50       0xc8 fs/built-in.o
 .text.check_overflow
                0x000000004a01cd18       0x60 fs/built-in.o
 .text.slot2str
                0x000000004a01cd78       0x5c fs/built-in.o
 .text.fat_itr_next
                0x000000004a01cdd4       0xc8 fs/built-in.o
 .text.fat_itr_resolve
                0x000000004a01ce9c       0xd8 fs/built-in.o
 .text.flush_dir_table.constprop.11
                0x000000004a01cf74       0x94 fs/built-in.o
 .text.do_fat_write
                0x000000004a01d008      0x81c fs/built-in.o
 .text.fat_set_blk_dev
                0x000000004a01d824       0x88 fs/built-in.o
                0x000000004a01d824                fat_set_blk_dev
 .text.file_fat_detectfs
                0x000000004a01d8ac       0xd4 fs/built-in.o
                0x000000004a01d8ac                file_fat_detectfs
 .text.fat_exists
                0x000000004a01d980       0x44 fs/built-in.o
                0x000000004a01d980                fat_exists
 .text.fat_size
                0x000000004a01d9c4       0x78 fs/built-in.o
                0x000000004a01d9c4                fat_size
 .text.file_fat_read_at
                0x000000004a01da3c      0x2cc fs/built-in.o
                0x000000004a01da3c                file_fat_read_at
 .text.fat_read_file
                0x000000004a01dd08       0x30 fs/built-in.o
                0x000000004a01dd08                fat_read_file
 .text.fat_opendir
                0x000000004a01dd38       0x58 fs/built-in.o
                0x000000004a01dd38                fat_opendir
 .text.fat_readdir
                0x000000004a01dd90       0x58 fs/built-in.o
                0x000000004a01dd90                fat_readdir
 .text.fat_closedir
                0x000000004a01dde8       0x16 fs/built-in.o
                0x000000004a01dde8                fat_closedir
 .text.fat_close
                0x000000004a01ddfe        0x2 fs/built-in.o
                0x000000004a01ddfe                fat_close
 .text.file_fat_write
                0x000000004a01de00       0x48 fs/built-in.o
                0x000000004a01de00                file_fat_write
 .text.fs_devread
                0x000000004a01de48      0x170 fs/built-in.o
                0x000000004a01de48                fs_devread
 .text.efi_load_pe
                0x000000004a01dfb8      0x220 lib/built-in.o
                0x000000004a01dfb8                efi_load_pe
 .text.indent_string
                0x000000004a01e1d8       0x20 lib/built-in.o
 .text.efi_uninstall_protocol_interface.isra.1.part.2
                0x000000004a01e1f8       0x64 lib/built-in.o
 .text.efi_search.isra.3.part.4
                0x000000004a01e25c       0x28 lib/built-in.o
 .text.efi_install_protocol_interface
                0x000000004a01e284       0xb4 lib/built-in.o
 .text.efi_locate_handle.isra.5
                0x000000004a01e338       0x80 lib/built-in.o
 .text.__efi_entry_check
                0x000000004a01e3b8       0x28 lib/built-in.o
                0x000000004a01e3b8                __efi_entry_check
 .text.__efi_exit_check
                0x000000004a01e3e0       0x20 lib/built-in.o
                0x000000004a01e3e0                __efi_exit_check
 .text.efi_set_mem
                0x000000004a01e400       0x1e lib/built-in.o
 .text.efi_copy_mem
                0x000000004a01e41e       0x1e lib/built-in.o
 .text.efi_calculate_crc32
                0x000000004a01e43c       0x20 lib/built-in.o
 .text.efi_uninstall_multiple_protocol_interfaces
                0x000000004a01e45c       0x1c lib/built-in.o
 .text.efi_install_multiple_protocol_interfaces
                0x000000004a01e478       0x6c lib/built-in.o
 .text.efi_locate_protocol
                0x000000004a01e4e4       0x7c lib/built-in.o
 .text.efi_locate_handle_buffer
                0x000000004a01e560       0x6c lib/built-in.o
 .text.efi_protocols_per_handle
                0x000000004a01e5cc       0x90 lib/built-in.o
 .text.efi_open_protocol_information
                0x000000004a01e65c       0x14 lib/built-in.o
 .text.efi_close_protocol
                0x000000004a01e670       0x14 lib/built-in.o
 .text.efi_open_protocol
                0x000000004a01e684       0xac lib/built-in.o
 .text.efi_handle_protocol
                0x000000004a01e730       0x12 lib/built-in.o
 *fill*         0x000000004a01e742        0x2 
 .text.efi_disconnect_controller
                0x000000004a01e744       0x14 lib/built-in.o
 .text.efi_connect_controller
                0x000000004a01e758       0x14 lib/built-in.o
 .text.efi_set_watchdog_timer
                0x000000004a01e76c       0x14 lib/built-in.o
 .text.efi_stall
                0x000000004a01e780       0x16 lib/built-in.o
 *fill*         0x000000004a01e796        0x2 
 .text.efi_get_next_monotonic_count
                0x000000004a01e798       0x28 lib/built-in.o
 .text.efi_unload_image
                0x000000004a01e7c0       0x3c lib/built-in.o
 .text.efi_locate_device_path
                0x000000004a01e7fc       0x30 lib/built-in.o
 .text.efi_locate_handle_ext
                0x000000004a01e82c       0x22 lib/built-in.o
 *fill*         0x000000004a01e84e        0x2 
 .text.efi_register_protocol_notify
                0x000000004a01e850       0x14 lib/built-in.o
 .text.efi_uninstall_protocol_interface_ext
                0x000000004a01e864       0x28 lib/built-in.o
 .text.efi_reinstall_protocol_interface
                0x000000004a01e88c       0x14 lib/built-in.o
 .text.efi_install_protocol_interface_ext
                0x000000004a01e8a0       0x24 lib/built-in.o
 .text.efi_close_event
                0x000000004a01e8c4       0x4c lib/built-in.o
 .text.efi_free_pool_ext
                0x000000004a01e910       0x18 lib/built-in.o
 .text.efi_allocate_pool_ext
                0x000000004a01e928       0x20 lib/built-in.o
 .text.efi_get_memory_map_ext
                0x000000004a01e948       0x2a lib/built-in.o
 .text.efi_free_pages_ext
                0x000000004a01e972       0x20 lib/built-in.o
 .text.efi_allocate_pages_ext
                0x000000004a01e992       0x24 lib/built-in.o
 *fill*         0x000000004a01e9b6        0x2 
 .text.efi_restore_tpl
                0x000000004a01e9b8       0x24 lib/built-in.o
 .text.efi_raise_tpl
                0x000000004a01e9dc       0x24 lib/built-in.o
 .text.efi_save_gd
                0x000000004a01ea00        0xc lib/built-in.o
                0x000000004a01ea00                efi_save_gd
 .text.efi_restore_gd
                0x000000004a01ea0c       0x10 lib/built-in.o
                0x000000004a01ea0c                efi_restore_gd
 .text.efi_exit
                0x000000004a01ea1c       0x26 lib/built-in.o
 *fill*         0x000000004a01ea42        0x2 
 .text.__efi_nesting_inc
                0x000000004a01ea44       0x10 lib/built-in.o
                0x000000004a01ea44                __efi_nesting_inc
 .text.__efi_nesting_dec
                0x000000004a01ea54       0x10 lib/built-in.o
                0x000000004a01ea54                __efi_nesting_dec
 .text.efi_start_image
                0x000000004a01ea64       0x54 lib/built-in.o
 .text.efi_signal_event
                0x000000004a01eab8       0x34 lib/built-in.o
                0x000000004a01eab8                efi_signal_event
 .text.efi_exit_boot_services
                0x000000004a01eaec       0x50 lib/built-in.o
 .text.efi_signal_event_ext
                0x000000004a01eb3c       0x40 lib/built-in.o
 .text.efi_create_event
                0x000000004a01eb7c       0x78 lib/built-in.o
                0x000000004a01eb7c                efi_create_event
 .text.efi_create_event_ext
                0x000000004a01ebf4       0x2a lib/built-in.o
 *fill*         0x000000004a01ec1e        0x2 
 .text.efi_timer_check
                0x000000004a01ec20       0x84 lib/built-in.o
                0x000000004a01ec20                efi_timer_check
 .text.efi_check_event
                0x000000004a01eca4       0x60 lib/built-in.o
 .text.efi_wait_for_event
                0x000000004a01ed04       0xac lib/built-in.o
 .text.efi_set_timer
                0x000000004a01edb0       0xa0 lib/built-in.o
                0x000000004a01edb0                efi_set_timer
 .text.efi_set_timer_ext
                0x000000004a01ee50       0x24 lib/built-in.o
 .text.efi_install_configuration_table
                0x000000004a01ee74       0xa0 lib/built-in.o
                0x000000004a01ee74                efi_install_configuration_table
 .text.efi_install_configuration_table_ext
                0x000000004a01ef14       0x1c lib/built-in.o
 .text.efi_setup_loaded_image
                0x000000004a01ef30       0x60 lib/built-in.o
                0x000000004a01ef30                efi_setup_loaded_image
 .text.efi_load_image_from_path
                0x000000004a01ef90       0xcc lib/built-in.o
                0x000000004a01ef90                efi_load_image_from_path
 .text.efi_load_image
                0x000000004a01f05c       0x98 lib/built-in.o
 .text.efi_get_time_boottime
                0x000000004a01f0f4        0x8 lib/built-in.o
 .text.efi_reset_system_boottime
                0x000000004a01f0fc       0x1a lib/built-in.o
 .text.efi_reset_system_init
                0x000000004a01f116        0x2 lib/built-in.o
                0x000000004a01f116                efi_reset_system_init
 .text.efi_get_time_init
                0x000000004a01f118        0x2 lib/built-in.o
                0x000000004a01f118                efi_get_time_init
 *fill*         0x000000004a01f11a        0x2 
 .text.efi_runtime_relocate
                0x000000004a01f11c       0xd0 lib/built-in.o
                0x000000004a01f11c                efi_runtime_relocate
 .text.efi_set_virtual_address_map
                0x000000004a01f1ec      0x100 lib/built-in.o
 .text.efi_key_notify
                0x000000004a01f2ec        0x2 lib/built-in.o
 *fill*         0x000000004a01f2ee        0x2 
 .text.efi_cin_lock_std_in
                0x000000004a01f2f0       0x14 lib/built-in.o
 .text.efi_cin_set_mode
                0x000000004a01f304       0x14 lib/built-in.o
 .text.efi_cin_get_mode
                0x000000004a01f318       0x26 lib/built-in.o
 .text.efi_cout_test_string
                0x000000004a01f33e        0xe lib/built-in.o
 .text.efi_cout_reset
                0x000000004a01f34c       0x14 lib/built-in.o
 .text.efi_cin_reset
                0x000000004a01f360       0x14 lib/built-in.o
 .text.efi_cout_enable_cursor
                0x000000004a01f374       0x24 lib/built-in.o
 .text.efi_cout_set_cursor_position
                0x000000004a01f398       0x2c lib/built-in.o
 .text.efi_cout_clear_screen
                0x000000004a01f3c4       0x18 lib/built-in.o
 .text.efi_cout_set_attribute
                0x000000004a01f3dc       0x44 lib/built-in.o
 .text.efi_cout_output_string
                0x000000004a01f420       0xa0 lib/built-in.o
 .text.efi_console_timer_notify
                0x000000004a01f4c0       0x28 lib/built-in.o
 .text.efi_cout_set_mode
                0x000000004a01f4e8       0x30 lib/built-in.o
 .text.efi_cin_read_key_stroke
                0x000000004a01f518       0xc0 lib/built-in.o
 .text.efi_cout_query_mode
                0x000000004a01f5d8      0x168 lib/built-in.o
 .text.efi_console_register
                0x000000004a01f740       0x9c lib/built-in.o
                0x000000004a01f740                efi_console_register
 .text.efi_mem_cmp
                0x000000004a01f7dc       0x20 lib/built-in.o
 .text.efi_find_free_memory
                0x000000004a01f7fc       0x88 lib/built-in.o
 .text.efi_add_memory_map
                0x000000004a01f884      0x250 lib/built-in.o
                0x000000004a01f884                efi_add_memory_map
 .text.efi_allocate_pages
                0x000000004a01fad4       0x80 lib/built-in.o
                0x000000004a01fad4                efi_allocate_pages
 .text.efi_alloc
                0x000000004a01fb54       0x34 lib/built-in.o
                0x000000004a01fb54                efi_alloc
 .text.efi_free_pages
                0x000000004a01fb88       0x28 lib/built-in.o
                0x000000004a01fb88                efi_free_pages
 .text.efi_allocate_pool
                0x000000004a01fbb0       0x34 lib/built-in.o
                0x000000004a01fbb0                efi_allocate_pool
 .text.efi_free_pool
                0x000000004a01fbe4       0x18 lib/built-in.o
                0x000000004a01fbe4                efi_free_pool
 .text.efi_get_memory_map
                0x000000004a01fbfc       0x70 lib/built-in.o
                0x000000004a01fbfc                efi_get_memory_map
 .text.efi_add_known_memory
                0x000000004a01fc6c       0x48 lib/built-in.o
                0x000000004a01fc6c                efi_add_known_memory
 .text.efi_memory_init
                0x000000004a01fcb4       0x64 lib/built-in.o
                0x000000004a01fcb4                efi_memory_init
 .text.efi_convert_device_node_to_text.isra.1
                0x000000004a01fd18      0x2e4 lib/built-in.o
 .text.efi_convert_device_path_to_text
                0x000000004a01fffc       0x18 lib/built-in.o
 .text.efi_convert_device_node_to_text_ext
                0x000000004a020014       0x18 lib/built-in.o
 .text.dp_size  0x000000004a02002c       0x38 lib/built-in.o
 .text.dp_alloc
                0x000000004a020064       0x1a lib/built-in.o
 *fill*         0x000000004a02007e        0x2 
 .text.dp_fill  0x000000004a020080       0xa0 lib/built-in.o
 .text.dp_part_fill.part.2
                0x000000004a020120      0x114 lib/built-in.o
 .text.efi_dp_next
                0x000000004a020234       0x22 lib/built-in.o
                0x000000004a020234                efi_dp_next
 .text.efi_dp_match
                0x000000004a020256       0x40 lib/built-in.o
                0x000000004a020256                efi_dp_match
 .text.efi_dp_size
                0x000000004a020296       0x1a lib/built-in.o
                0x000000004a020296                efi_dp_size
 .text.find_obj
                0x000000004a0202b0       0x94 lib/built-in.o
 .text.efi_dp_find_obj
                0x000000004a020344       0x20 lib/built-in.o
                0x000000004a020344                efi_dp_find_obj
 .text.efi_dp_dup
                0x000000004a020364       0x24 lib/built-in.o
                0x000000004a020364                efi_dp_dup
 .text.efi_dp_from_part
                0x000000004a020388       0x64 lib/built-in.o
                0x000000004a020388                efi_dp_from_part
 .text.efi_dp_from_file
                0x000000004a0203ec       0xac lib/built-in.o
                0x000000004a0203ec                efi_dp_from_file
 .text.efi_dp_from_eth
                0x000000004a020498       0x58 lib/built-in.o
                0x000000004a020498                efi_dp_from_eth
 .text.efi_dp_from_mem
                0x000000004a0204f0       0xa8 lib/built-in.o
                0x000000004a0204f0                efi_dp_from_mem
 .text.efi_dp_split_file_path
                0x000000004a020598       0x42 lib/built-in.o
                0x000000004a020598                efi_dp_split_file_path
 .text.efi_file_flush
                0x000000004a0205da        0xe lib/built-in.o
 .text.efi_file_setinfo
                0x000000004a0205e8       0x14 lib/built-in.o
 .text.efi_file_getpos
                0x000000004a0205fc       0x1a lib/built-in.o
 .text.efi_file_delete
                0x000000004a020616       0x1c lib/built-in.o
 .text.set_blk_dev.isra.0
                0x000000004a020632        0xa lib/built-in.o
 .text.efi_file_getinfo
                0x000000004a02063c       0xcc lib/built-in.o
 .text.efi_file_setpos
                0x000000004a020708       0x68 lib/built-in.o
 .text.efi_file_write
                0x000000004a020770       0x60 lib/built-in.o
 .text.efi_file_read
                0x000000004a0207d0      0x120 lib/built-in.o
 .text.file_open
                0x000000004a0208f0      0x1a4 lib/built-in.o
 .text.efi_open_volume
                0x000000004a020a94       0x28 lib/built-in.o
 .text.efi_file_open
                0x000000004a020abc       0x38 lib/built-in.o
 .text.efi_file_close
                0x000000004a020af4       0x1c lib/built-in.o
 .text.efi_file_from_path
                0x000000004a020b10       0xb4 lib/built-in.o
                0x000000004a020b10                efi_file_from_path
 .text.efi_simple_file_system
                0x000000004a020bc4       0x30 lib/built-in.o
                0x000000004a020bc4                efi_simple_file_system
 .text.efi_to_native
                0x000000004a020bf4       0x3c lib/built-in.o
 .text.prefix   0x000000004a020c30       0x22 lib/built-in.o
 .text.hex      0x000000004a020c52       0x2a lib/built-in.o
 .text.parse_attr.part.1
                0x000000004a020c7c       0x70 lib/built-in.o
 .text.efi_get_variable
                0x000000004a020cec      0x170 lib/built-in.o
                0x000000004a020cec                efi_get_variable
 .text.efi_get_next_variable
                0x000000004a020e5c       0x14 lib/built-in.o
                0x000000004a020e5c                efi_get_next_variable
 .text.efi_set_variable
                0x000000004a020e70      0x19c lib/built-in.o
                0x000000004a020e70                efi_set_variable
 .text.get_var.constprop.0
                0x000000004a02100c       0x78 lib/built-in.o
 .text.efi_bootmgr_load
                0x000000004a021084      0x120 lib/built-in.o
                0x000000004a021084                efi_bootmgr_load
 .text.efi_disk_flush_blocks
                0x000000004a0211a4        0xe lib/built-in.o
 *fill*         0x000000004a0211b2        0x2 
 .text.efi_disk_reset
                0x000000004a0211b4       0x14 lib/built-in.o
 .text.efi_disk_add_dev.isra.3.part.4
                0x000000004a0211c8       0xe4 lib/built-in.o
 .text.efi_disk_read_blocks
                0x000000004a0212ac       0x50 lib/built-in.o
 .text.efi_disk_write_blocks
                0x000000004a0212fc       0x50 lib/built-in.o
 .text.efi_fs_from_path
                0x000000004a02134c       0x10 lib/built-in.o
                0x000000004a02134c                efi_fs_from_path
 .text.efi_disk_register
                0x000000004a02135c      0x124 lib/built-in.o
                0x000000004a02135c                efi_disk_register
 .text.efi_net_push
                0x000000004a021480       0x18 lib/built-in.o
 .text.efi_network_timer_notify
                0x000000004a021498       0x2c lib/built-in.o
 .text.efi_net_nvdata
                0x000000004a0214c4       0x14 lib/built-in.o
 .text.efi_net_mcastiptomac
                0x000000004a0214d8       0x14 lib/built-in.o
 .text.efi_net_statistics
                0x000000004a0214ec       0x14 lib/built-in.o
 .text.efi_net_station_address
                0x000000004a021500       0x14 lib/built-in.o
 .text.efi_net_receive_filters
                0x000000004a021514       0x14 lib/built-in.o
 .text.efi_net_shutdown
                0x000000004a021528        0xe lib/built-in.o
 .text.efi_net_reset
                0x000000004a021536        0xe lib/built-in.o
 .text.efi_net_stop
                0x000000004a021544        0xe lib/built-in.o
 .text.efi_net_start
                0x000000004a021552        0xe lib/built-in.o
 .text.efi_net_get_status
                0x000000004a021560       0x3c lib/built-in.o
 .text.efi_net_initialize
                0x000000004a02159c       0x12 lib/built-in.o
 *fill*         0x000000004a0215ae        0x2 
 .text.efi_net_transmit
                0x000000004a0215b0       0x38 lib/built-in.o
 .text.efi_net_receive
                0x000000004a0215e8       0xc4 lib/built-in.o
 .text.efi_net_set_dhcp_ack
                0x000000004a0216ac       0x34 lib/built-in.o
                0x000000004a0216ac                efi_net_set_dhcp_ack
 .text.efi_net_register
                0x000000004a0216e0      0x1a4 lib/built-in.o
                0x000000004a0216e0                efi_net_register
 .text.efi_smbios_register
                0x000000004a021884       0x34 lib/built-in.o
                0x000000004a021884                efi_smbios_register
 .text.utf16_strlen
                0x000000004a0218b8       0x10 lib/built-in.o
                0x000000004a0218b8                utf16_strlen
 .text.utf16_strnlen
                0x000000004a0218c8       0x16 lib/built-in.o
                0x000000004a0218c8                utf16_strnlen
 .text.utf16_to_utf8
                0x000000004a0218de       0xd4 lib/built-in.o
                0x000000004a0218de                utf16_to_utf8
 *fill*         0x000000004a0219b2        0x2 
 .text.crc16_ccitt
                0x000000004a0219b4       0x28 lib/built-in.o
                0x000000004a0219b4                crc16_ccitt
 .text.smbios_write_type127
                0x000000004a0219dc       0x2c lib/built-in.o
 .text.smbios_write_type32
                0x000000004a021a08       0x2c lib/built-in.o
 .text.smbios_string_table_len
                0x000000004a021a34       0x1c lib/built-in.o
 .text.smbios_add_string
                0x000000004a021a50       0x3a lib/built-in.o
 *fill*         0x000000004a021a8a        0x2 
 .text.smbios_write_type3
                0x000000004a021a8c       0x50 lib/built-in.o
 .text.smbios_write_type2
                0x000000004a021adc       0x5c lib/built-in.o
 .text.smbios_write_type0
                0x000000004a021b38       0x90 lib/built-in.o
 .text.smbios_write_type1
                0x000000004a021bc8       0x78 lib/built-in.o
 .text.smbios_write_type4
                0x000000004a021c40       0x80 lib/built-in.o
 .text.write_smbios_table
                0x000000004a021cc0       0xc0 lib/built-in.o
                0x000000004a021cc0                write_smbios_table
 .text.initcall_run_list
                0x000000004a021d80       0x44 lib/built-in.o
                0x000000004a021d80                initcall_run_list
 .text.lmb_add_region
                0x000000004a021dc4      0x108 lib/built-in.o
 .text.lmb_init
                0x000000004a021ecc       0x16 lib/built-in.o
                0x000000004a021ecc                lmb_init
 .text.lmb_add  0x000000004a021ee2        0x4 lib/built-in.o
                0x000000004a021ee2                lmb_add
 .text.lmb_free
                0x000000004a021ee6       0x86 lib/built-in.o
                0x000000004a021ee6                lmb_free
 .text.lmb_reserve
                0x000000004a021f6c        0x6 lib/built-in.o
                0x000000004a021f6c                lmb_reserve
 .text.__lmb_alloc_base
                0x000000004a021f72       0xbc lib/built-in.o
                0x000000004a021f72                __lmb_alloc_base
 *fill*         0x000000004a02202e        0x2 
 .text.lmb_alloc_base
                0x000000004a022030       0x20 lib/built-in.o
                0x000000004a022030                lmb_alloc_base
 .text.lmb_alloc
                0x000000004a022050        0x6 lib/built-in.o
                0x000000004a022050                lmb_alloc
 .text.board_lmb_reserve
                0x000000004a022056        0x2 lib/built-in.o
                0x000000004a022056                board_lmb_reserve
 .text.string_to_ip
                0x000000004a022058       0x58 lib/built-in.o
                0x000000004a022058                string_to_ip
 .text.qsort    0x000000004a0220b0       0x94 lib/built-in.o
                0x000000004a0220b0                qsort
 .text.strcmp_compar
                0x000000004a022144        0x8 lib/built-in.o
                0x000000004a022144                strcmp_compar
 .text.merge    0x000000004a02214c       0x36 lib/built-in.o
 *fill*         0x000000004a022182        0x2 
 .text.list_sort
                0x000000004a022184      0x110 lib/built-in.o
                0x000000004a022184                list_sort
 .text.zcalloc  0x000000004a022294        0x8 lib/built-in.o
                0x000000004a022294                zcalloc
 .text.zcfree   0x000000004a02229c        0x6 lib/built-in.o
                0x000000004a02229c                zcfree
 *fill*         0x000000004a0222a2        0x2 
 .text.inflate_fast
                0x000000004a0222a4      0x3a8 lib/built-in.o
                0x000000004a0222a4                inflate_fast
 .text.inflate_table
                0x000000004a02264c      0x33c lib/built-in.o
                0x000000004a02264c                inflate_table
 .text.inflateReset
                0x000000004a022988       0x40 lib/built-in.o
                0x000000004a022988                inflateReset
 .text.inflateInit2_
                0x000000004a0229c8       0x9c lib/built-in.o
                0x000000004a0229c8                inflateInit2_
 .text.inflateEnd
                0x000000004a022a64       0x2e lib/built-in.o
                0x000000004a022a64                inflateEnd
 .text.adler32  0x000000004a022a92      0x22a lib/built-in.o
                0x000000004a022a92                adler32
 .text.inflate  0x000000004a022cbc      0xd4c lib/built-in.o
                0x000000004a022cbc                inflate
 .text.gzalloc  0x000000004a023a08        0xe lib/built-in.o
                0x000000004a023a08                gzalloc
 .text.gzfree   0x000000004a023a16        0x6 lib/built-in.o
                0x000000004a023a16                gzfree
 .text.gzip_parse_header
                0x000000004a023a1c       0x68 lib/built-in.o
                0x000000004a023a1c                gzip_parse_header
 .text.zunzip   0x000000004a023a84       0xa4 lib/built-in.o
                0x000000004a023a84                zunzip
 .text.gunzip   0x000000004a023b28       0x30 lib/built-in.o
                0x000000004a023b28                gunzip
 .text.fdt_check_header
                0x000000004a023b58       0x4c lib/built-in.o
                0x000000004a023b58                fdt_check_header
 .text.fdt_offset_ptr
                0x000000004a023ba4       0x32 lib/built-in.o
                0x000000004a023ba4                fdt_offset_ptr
 .text.fdt_next_tag
                0x000000004a023bd6       0x86 lib/built-in.o
                0x000000004a023bd6                fdt_next_tag
 .text._fdt_check_node_offset
                0x000000004a023c5c       0x24 lib/built-in.o
                0x000000004a023c5c                _fdt_check_node_offset
 .text._fdt_check_prop_offset
                0x000000004a023c80       0x24 lib/built-in.o
                0x000000004a023c80                _fdt_check_prop_offset
 .text.fdt_next_node
                0x000000004a023ca4       0x6e lib/built-in.o
                0x000000004a023ca4                fdt_next_node
 .text.fdt_first_subnode
                0x000000004a023d12       0x28 lib/built-in.o
                0x000000004a023d12                fdt_first_subnode
 .text.fdt_next_subnode
                0x000000004a023d3a       0x2e lib/built-in.o
                0x000000004a023d3a                fdt_next_subnode
 .text._fdt_find_string
                0x000000004a023d68       0x30 lib/built-in.o
                0x000000004a023d68                _fdt_find_string
 .text.fdt_move
                0x000000004a023d98       0x2a lib/built-in.o
                0x000000004a023d98                fdt_move
 *fill*         0x000000004a023dc2        0x2 
 .text.fdt_strerror
                0x000000004a023dc4       0x3c lib/built-in.o
                0x000000004a023dc4                fdt_strerror
 .text.fdt_address_cells
                0x000000004a023e00       0x34 lib/built-in.o
                0x000000004a023e00                fdt_address_cells
 .text.fdt_size_cells
                0x000000004a023e34       0x34 lib/built-in.o
                0x000000004a023e34                fdt_size_cells
 .text.fdt_path_next_separator
                0x000000004a023e68       0x2a lib/built-in.o
 .text._nextprop
                0x000000004a023e92       0x36 lib/built-in.o
 .text.fdt_string
                0x000000004a023ec8        0xa lib/built-in.o
                0x000000004a023ec8                fdt_string
 .text.fdt_get_mem_rsv
                0x000000004a023ed2       0x38 lib/built-in.o
                0x000000004a023ed2                fdt_get_mem_rsv
 .text.fdt_num_mem_rsv
                0x000000004a023f0a       0x24 lib/built-in.o
                0x000000004a023f0a                fdt_num_mem_rsv
 .text.fdt_subnode_offset_namelen
                0x000000004a023f2e       0x7a lib/built-in.o
                0x000000004a023f2e                fdt_subnode_offset_namelen
 .text.fdt_subnode_offset
                0x000000004a023fa8       0x1e lib/built-in.o
                0x000000004a023fa8                fdt_subnode_offset
 .text.fdt_get_name
                0x000000004a023fc6       0x3e lib/built-in.o
                0x000000004a023fc6                fdt_get_name
 .text.fdt_first_property_offset
                0x000000004a024004       0x18 lib/built-in.o
                0x000000004a024004                fdt_first_property_offset
 .text.fdt_next_property_offset
                0x000000004a02401c       0x18 lib/built-in.o
                0x000000004a02401c                fdt_next_property_offset
 .text.fdt_get_property_by_offset
                0x000000004a024034       0x2e lib/built-in.o
                0x000000004a024034                fdt_get_property_by_offset
 .text.fdt_get_property_namelen
                0x000000004a024062       0x70 lib/built-in.o
                0x000000004a024062                fdt_get_property_namelen
 .text.fdt_get_property
                0x000000004a0240d2       0x22 lib/built-in.o
                0x000000004a0240d2                fdt_get_property
 .text.fdt_getprop_namelen
                0x000000004a0240f4       0x12 lib/built-in.o
                0x000000004a0240f4                fdt_getprop_namelen
 .text.fdt_getprop_by_offset
                0x000000004a024106       0x26 lib/built-in.o
                0x000000004a024106                fdt_getprop_by_offset
 .text.fdt_getprop
                0x000000004a02412c       0x22 lib/built-in.o
                0x000000004a02412c                fdt_getprop
 *fill*         0x000000004a02414e        0x2 
 .text.fdt_get_alias_namelen
                0x000000004a024150       0x2c lib/built-in.o
                0x000000004a024150                fdt_get_alias_namelen
 .text.fdt_path_offset_namelen
                0x000000004a02417c       0x94 lib/built-in.o
                0x000000004a02417c                fdt_path_offset_namelen
 .text.fdt_path_offset
                0x000000004a024210       0x1a lib/built-in.o
                0x000000004a024210                fdt_path_offset
 .text.fdt_get_alias
                0x000000004a02422a       0x1a lib/built-in.o
                0x000000004a02422a                fdt_get_alias
 .text.fdt_supernode_atdepth_offset
                0x000000004a024244       0x72 lib/built-in.o
                0x000000004a024244                fdt_supernode_atdepth_offset
 .text.fdt_node_depth
                0x000000004a0242b6       0x1e lib/built-in.o
                0x000000004a0242b6                fdt_node_depth
 .text.fdt_parent_offset
                0x000000004a0242d4       0x20 lib/built-in.o
                0x000000004a0242d4                fdt_parent_offset
 .text._fdt_blocks_misordered
                0x000000004a0242f4       0x36 lib/built-in.o
 .text._fdt_splice
                0x000000004a02432a       0x4a lib/built-in.o
 .text._fdt_splice_mem_rsv
                0x000000004a024374       0x2c lib/built-in.o
 .text._fdt_splice_struct
                0x000000004a0243a0       0x26 lib/built-in.o
 .text._fdt_packblocks
                0x000000004a0243c6       0x74 lib/built-in.o
 .text._fdt_find_add_string
                0x000000004a02443a       0x64 lib/built-in.o
 .text._fdt_add_property
                0x000000004a02449e       0x60 lib/built-in.o
 .text._fdt_rw_check_header
                0x000000004a0244fe       0x38 lib/built-in.o
 .text.fdt_add_mem_rsv
                0x000000004a024536       0x5a lib/built-in.o
                0x000000004a024536                fdt_add_mem_rsv
 .text.fdt_del_mem_rsv
                0x000000004a024590       0x3e lib/built-in.o
                0x000000004a024590                fdt_del_mem_rsv
 .text.fdt_setprop_placeholder
                0x000000004a0245ce       0x6c lib/built-in.o
                0x000000004a0245ce                fdt_setprop_placeholder
 .text.fdt_setprop
                0x000000004a02463a       0x2a lib/built-in.o
                0x000000004a02463a                fdt_setprop
 .text.fdt_appendprop
                0x000000004a024664       0x78 lib/built-in.o
                0x000000004a024664                fdt_appendprop
 .text.fdt_delprop
                0x000000004a0246dc       0x3a lib/built-in.o
                0x000000004a0246dc                fdt_delprop
 .text.fdt_add_subnode_namelen
                0x000000004a024716       0x9c lib/built-in.o
                0x000000004a024716                fdt_add_subnode_namelen
 .text.fdt_add_subnode
                0x000000004a0247b2       0x1e lib/built-in.o
                0x000000004a0247b2                fdt_add_subnode
 .text.fdt_del_node
                0x000000004a0247d0       0x3e lib/built-in.o
                0x000000004a0247d0                fdt_del_node
 *fill*         0x000000004a02480e        0x2 
 .text.fdt_open_into
                0x000000004a024810      0x104 lib/built-in.o
                0x000000004a024810                fdt_open_into
 .text._fdt_node_end_offset
                0x000000004a024914       0x28 lib/built-in.o
                0x000000004a024914                _fdt_node_end_offset
 .text.fdtdec_get_int
                0x000000004a02493c       0x1e lib/built-in.o
                0x000000004a02493c                fdtdec_get_int
 .text.get_prop_check_min_len
                0x000000004a02495a       0x26 lib/built-in.o
 .text.fdtdec_get_is_enabled
                0x000000004a024980       0x28 lib/built-in.o
                0x000000004a024980                fdtdec_get_is_enabled
 .text.fdtdec_get_alias_seq
                0x000000004a0249a8       0xb4 lib/built-in.o
                0x000000004a0249a8                fdtdec_get_alias_seq
 .text.fdtdec_get_chosen_prop
                0x000000004a024a5c       0x24 lib/built-in.o
                0x000000004a024a5c                fdtdec_get_chosen_prop
 .text.fdtdec_get_chosen_node
                0x000000004a024a80       0x1c lib/built-in.o
                0x000000004a024a80                fdtdec_get_chosen_node
 .text.fdtdec_prepare_fdt
                0x000000004a024a9c       0x30 lib/built-in.o
                0x000000004a024a9c                fdtdec_prepare_fdt
 .text.fdtdec_get_int_array
                0x000000004a024acc       0x34 lib/built-in.o
                0x000000004a024acc                fdtdec_get_int_array
 .text.fdtdec_get_config_int
                0x000000004a024b00       0x28 lib/built-in.o
                0x000000004a024b00                fdtdec_get_config_int
 .text.fdtdec_get_config_string
                0x000000004a024b28       0x28 lib/built-in.o
                0x000000004a024b28                fdtdec_get_config_string
 .text.fdtdec_setup
                0x000000004a024b50       0x28 lib/built-in.o
                0x000000004a024b50                fdtdec_setup
 .text.cmpkey   0x000000004a024b78        0xc lib/built-in.o
 .text._hdelete.isra.1
                0x000000004a024b84       0x30 lib/built-in.o
 .text.drop_var_from_set.part.2
                0x000000004a024bb4       0x2e lib/built-in.o
 *fill*         0x000000004a024be2        0x2 
 .text.match_string
                0x000000004a024be4       0x7c lib/built-in.o
 .text.match_entry
                0x000000004a024c60       0x7c lib/built-in.o
 .text.hcreate_r
                0x000000004a024cdc       0x60 lib/built-in.o
                0x000000004a024cdc                hcreate_r
 .text.hdestroy_r
                0x000000004a024d3c       0x48 lib/built-in.o
                0x000000004a024d3c                hdestroy_r
 .text.hmatch_r
                0x000000004a024d84       0x5c lib/built-in.o
                0x000000004a024d84                hmatch_r
 .text.hsearch_r
                0x000000004a024de0      0x2c0 lib/built-in.o
                0x000000004a024de0                hsearch_r
 .text.hdelete_r
                0x000000004a0250a0       0x80 lib/built-in.o
                0x000000004a0250a0                hdelete_r
 .text.hexport_r
                0x000000004a025120      0x1a8 lib/built-in.o
                0x000000004a025120                hexport_r
 .text.himport_r
                0x000000004a0252c8      0x274 lib/built-in.o
                0x000000004a0252c8                himport_r
 .text.hwalk_r  0x000000004a02553c       0x2c lib/built-in.o
                0x000000004a02553c                hwalk_r
 .text.display_options_get_banner_priv
                0x000000004a025568       0x60 lib/built-in.o
                0x000000004a025568                display_options_get_banner_priv
 .text.display_options_get_banner
                0x000000004a0255c8       0x12 lib/built-in.o
                0x000000004a0255c8                display_options_get_banner
 *fill*         0x000000004a0255da        0x2 
 .text.display_options
                0x000000004a0255dc       0x24 lib/built-in.o
                0x000000004a0255dc                display_options
 .text.print_size
                0x000000004a025600       0xd8 lib/built-in.o
                0x000000004a025600                print_size
 .text.print_buffer
                0x000000004a0256d8      0x124 lib/built-in.o
                0x000000004a0256d8                print_buffer
 .text.crc32_no_comp
                0x000000004a0257fc       0x8c lib/built-in.o
                0x000000004a0257fc                crc32_no_comp
 .text.crc32    0x000000004a025888        0xc lib/built-in.o
                0x000000004a025888                crc32
 .text.crc32_wd
                0x000000004a025894        0x4 lib/built-in.o
                0x000000004a025894                crc32_wd
 .text.__div64_32
                0x000000004a025898       0x8e lib/built-in.o
                0x000000004a025898                __div64_32
 *fill*         0x000000004a025926        0x2 
 .text.hang     0x000000004a025928       0x18 lib/built-in.o
                0x000000004a025928                hang
 .text.skip_spaces
                0x000000004a025940       0x18 lib/built-in.o
                0x000000004a025940                skip_spaces
 .text.strim    0x000000004a025958       0x34 lib/built-in.o
                0x000000004a025958                strim
 .text.emit     0x000000004a02598c       0x20 lib/built-in.o
 .text.store_char_in_data
                0x000000004a0259ac       0x24 lib/built-in.o
 .text.get_escape_char
                0x000000004a0259d0       0x48 lib/built-in.o
 .text.match    0x000000004a025a18      0x280 lib/built-in.o
 .text.loop_greedy
                0x000000004a025c98       0x5e lib/built-in.o
 .text.loop_non_greedy
                0x000000004a025cf6       0x4e lib/built-in.o
 .text.fixup_branch.part.0
                0x000000004a025d44       0x28 lib/built-in.o
 .text.quantifier
                0x000000004a025d6c       0x74 lib/built-in.o
 .text.compile  0x000000004a025de0      0x268 lib/built-in.o
 .text.slre_compile
                0x000000004a026048       0x7a lib/built-in.o
                0x000000004a026048                slre_compile
 .text.slre_match
                0x000000004a0260c2       0x58 lib/built-in.o
                0x000000004a0260c2                slre_match
 *fill*         0x000000004a02611a        0x2 
 .text.strncasecmp
                0x000000004a02611c       0x58 lib/built-in.o
                0x000000004a02611c                strncasecmp
 .text.strcpy   0x000000004a026174       0x10 lib/built-in.o
                0x000000004a026174                strcpy
 .text.strncpy  0x000000004a026184       0x18 lib/built-in.o
                0x000000004a026184                strncpy
 .text.strcat   0x000000004a02619c       0x1e lib/built-in.o
                0x000000004a02619c                strcat
 .text.strncat  0x000000004a0261ba       0x2a lib/built-in.o
                0x000000004a0261ba                strncat
 .text.strcmp   0x000000004a0261e4       0x1a lib/built-in.o
                0x000000004a0261e4                strcmp
 .text.strncmp  0x000000004a0261fe       0x26 lib/built-in.o
                0x000000004a0261fe                strncmp
 .text.strchr   0x000000004a026224       0x18 lib/built-in.o
                0x000000004a026224                strchr
 .text.strlen   0x000000004a02623c       0x10 lib/built-in.o
                0x000000004a02623c                strlen
 .text.strlcpy  0x000000004a02624c       0x2e lib/built-in.o
                0x000000004a02624c                strlcpy
 .text.strrchr  0x000000004a02627a       0x20 lib/built-in.o
                0x000000004a02627a                strrchr
 .text.strnlen  0x000000004a02629a       0x18 lib/built-in.o
                0x000000004a02629a                strnlen
 .text.strdup   0x000000004a0262b2       0x22 lib/built-in.o
                0x000000004a0262b2                strdup
 .text.strpbrk  0x000000004a0262d4       0x20 lib/built-in.o
                0x000000004a0262d4                strpbrk
 .text.strsep   0x000000004a0262f4       0x1e lib/built-in.o
                0x000000004a0262f4                strsep
 .text.memmove  0x000000004a026312       0x28 lib/built-in.o
                0x000000004a026312                memmove
 .text.memcmp   0x000000004a02633a       0x1c lib/built-in.o
                0x000000004a02633a                memcmp
 .text.memscan  0x000000004a026356       0x16 lib/built-in.o
                0x000000004a026356                memscan
 .text.strstr   0x000000004a02636c       0x46 lib/built-in.o
                0x000000004a02636c                strstr
 .text.memchr   0x000000004a0263b2       0x1c lib/built-in.o
                0x000000004a0263b2                memchr
 .text.tick_to_time
                0x000000004a0263ce       0x48 lib/built-in.o
 .text.timer_get_us
                0x000000004a026416       0x1c lib/built-in.o
                0x000000004a026416                timer_get_us
 *fill*         0x000000004a026432        0x2 
 .text.udelay   0x000000004a026434       0x20 lib/built-in.o
                0x000000004a026434                udelay
 .text.uuid_str_valid
                0x000000004a026454       0x54 lib/built-in.o
                0x000000004a026454                uuid_str_valid
 .text.uuid_str_to_bin
                0x000000004a0264a8      0x112 lib/built-in.o
                0x000000004a0264a8                uuid_str_to_bin
 *fill*         0x000000004a0265ba        0x2 
 .text.uuid_bin_to_str
                0x000000004a0265bc       0x78 lib/built-in.o
                0x000000004a0265bc                uuid_bin_to_str
 .text.gen_rand_uuid
                0x000000004a026634       0x50 lib/built-in.o
                0x000000004a026634                gen_rand_uuid
 .text.gen_rand_uuid_str
                0x000000004a026684       0x1c lib/built-in.o
                0x000000004a026684                gen_rand_uuid_str
 .text.rand_r   0x000000004a0266a0       0x14 lib/built-in.o
                0x000000004a0266a0                rand_r
 .text.rand     0x000000004a0266b4        0xc lib/built-in.o
                0x000000004a0266b4                rand
 .text.put_dec_trunc
                0x000000004a0266c0       0x98 lib/built-in.o
 .text.put_dec  0x000000004a026758      0x148 lib/built-in.o
 .text.number   0x000000004a0268a0      0x1fc lib/built-in.o
 .text.string   0x000000004a026a9c       0x78 lib/built-in.o
 .text.vsnprintf_internal
                0x000000004a026b14      0x598 lib/built-in.o
 .text.vscnprintf
                0x000000004a0270ac       0x16 lib/built-in.o
                0x000000004a0270ac                vscnprintf
 .text.snprintf
                0x000000004a0270c2       0x1a lib/built-in.o
                0x000000004a0270c2                snprintf
 .text.vsprintf
                0x000000004a0270dc       0x14 lib/built-in.o
                0x000000004a0270dc                vsprintf
 .text.sprintf  0x000000004a0270f0       0x1a lib/built-in.o
                0x000000004a0270f0                sprintf
 .text.printf   0x000000004a02710a       0x32 lib/built-in.o
                0x000000004a02710a                printf
 .text.vprintf  0x000000004a02713c       0x24 lib/built-in.o
                0x000000004a02713c                vprintf
 .text.simple_itoa
                0x000000004a027160       0x38 lib/built-in.o
                0x000000004a027160                simple_itoa
 .text.panic_finish
                0x000000004a027198       0x20 lib/built-in.o
 .text.panic_str
                0x000000004a0271b8        0xa lib/built-in.o
                0x000000004a0271b8                panic_str
 .text.panic    0x000000004a0271c2       0x14 lib/built-in.o
                0x000000004a0271c2                panic
 *fill*         0x000000004a0271d6        0x2 
 .text._parse_integer_fixup_radix
                0x000000004a0271d8       0x5c lib/built-in.o
 .text.simple_strtoul
                0x000000004a027234       0x50 lib/built-in.o
                0x000000004a027234                simple_strtoul
 .text.strict_strtoul
                0x000000004a027284       0x42 lib/built-in.o
                0x000000004a027284                strict_strtoul
 .text.simple_strtol
                0x000000004a0272c6       0x1a lib/built-in.o
                0x000000004a0272c6                simple_strtol
 .text.ustrtoul
                0x000000004a0272e0       0x3c lib/built-in.o
                0x000000004a0272e0                ustrtoul
 .text.simple_strtoull
                0x000000004a02731c       0x70 lib/built-in.o
                0x000000004a02731c                simple_strtoull
 .text.ustrtoull
                0x000000004a02738c       0x4e lib/built-in.o
                0x000000004a02738c                ustrtoull
 *fill*         0x000000004a0273da        0x2 
 .text.trailing_strtoln
                0x000000004a0273dc       0x4c lib/built-in.o
                0x000000004a0273dc                trailing_strtoln
 .text.trailing_strtol
                0x000000004a027428        0x6 lib/built-in.o
                0x000000004a027428                trailing_strtol
 .text.compute_ip_checksum
                0x000000004a02742e       0x44 net/built-in.o
                0x000000004a02742e                compute_ip_checksum
 .text.ip_checksum_ok
                0x000000004a027472       0x14 net/built-in.o
                0x000000004a027472                ip_checksum_ok
 *fill*         0x000000004a027486        0x2 
 .text.arp_init
                0x000000004a027488       0x38 net/built-in.o
                0x000000004a027488                arp_init
 .text.arp_raw_request
                0x000000004a0274c0       0x94 net/built-in.o
                0x000000004a0274c0                arp_raw_request
 .text.arp_request
                0x000000004a027554       0x58 net/built-in.o
                0x000000004a027554                arp_request
 .text.arp_timeout_check
                0x000000004a0275ac       0x58 net/built-in.o
                0x000000004a0275ac                arp_timeout_check
 .text.arp_receive
                0x000000004a027604      0x15c net/built-in.o
                0x000000004a027604                arp_receive
 .text.dhcp_extended
                0x000000004a027760      0x164 net/built-in.o
 .text.dhcp_process_options
                0x000000004a0278c4      0x124 net/built-in.o
 .text.dhcp_packet_process_options
                0x000000004a0279e8       0x5c net/built-in.o
 .text.dhcp_handler
                0x000000004a027a44      0x2b8 net/built-in.o
 .text.bootp_reset
                0x000000004a027cfc       0x2c net/built-in.o
                0x000000004a027cfc                bootp_reset
 .text.bootp_request
                0x000000004a027d28      0x1f4 net/built-in.o
                0x000000004a027d28                bootp_request
 .text.bootp_timeout_handler
                0x000000004a027f1c       0x58 net/built-in.o
 .text.dhcp_request
                0x000000004a027f74        0x4 net/built-in.o
                0x000000004a027f74                dhcp_request
 .text.eth_get_uclass_priv
                0x000000004a027f78       0x14 net/built-in.o
 .text.eth_pre_remove
                0x000000004a027f8c       0x1a net/built-in.o
 *fill*         0x000000004a027fa6        0x2 
 .text.eth_write_hwaddr
                0x000000004a027fa8       0x78 net/built-in.o
 .text.on_ethaddr
                0x000000004a028020       0x4c net/built-in.o
 .text.eth_post_probe
                0x000000004a02806c      0x114 net/built-in.o
 .text.eth_post_bind
                0x000000004a028180       0x20 net/built-in.o
 .text.eth_set_current_to_next
                0x000000004a0281a0       0x22 net/built-in.o
                0x000000004a0281a0                eth_set_current_to_next
 *fill*         0x000000004a0281c2        0x2 
 .text.eth_get_dev
                0x000000004a0281c4       0x20 net/built-in.o
                0x000000004a0281c4                eth_get_dev
 .text.eth_set_dev
                0x000000004a0281e4       0x28 net/built-in.o
                0x000000004a0281e4                eth_set_dev
 .text.eth_pre_unbind
                0x000000004a02820c       0x18 net/built-in.o
 .text.eth_get_dev_by_name
                0x000000004a028224       0x88 net/built-in.o
                0x000000004a028224                eth_get_dev_by_name
 .text.eth_get_ethaddr
                0x000000004a0282ac       0x12 net/built-in.o
                0x000000004a0282ac                eth_get_ethaddr
 .text.eth_halt_state_only
                0x000000004a0282be       0x16 net/built-in.o
                0x000000004a0282be                eth_halt_state_only
 .text.eth_get_dev_index
                0x000000004a0282d4       0x16 net/built-in.o
                0x000000004a0282d4                eth_get_dev_index
 *fill*         0x000000004a0282ea        0x2 
 .text.eth_init
                0x000000004a0282ec       0x94 net/built-in.o
                0x000000004a0282ec                eth_init
 .text.eth_halt
                0x000000004a028380       0x20 net/built-in.o
                0x000000004a028380                eth_halt
 .text.eth_send
                0x000000004a0283a0       0x2e net/built-in.o
                0x000000004a0283a0                eth_send
 .text.eth_rx   0x000000004a0283ce       0x68 net/built-in.o
                0x000000004a0283ce                eth_rx
 *fill*         0x000000004a028436        0x2 
 .text.eth_initialize
                0x000000004a028438       0xa4 net/built-in.o
                0x000000004a028438                eth_initialize
 .text.eth_parse_enetaddr
                0x000000004a0284dc       0x2c net/built-in.o
                0x000000004a0284dc                eth_parse_enetaddr
 .text.eth_env_get_enetaddr
                0x000000004a028508       0x34 net/built-in.o
                0x000000004a028508                eth_env_get_enetaddr
 .text.eth_env_set_enetaddr
                0x000000004a02853c       0x30 net/built-in.o
                0x000000004a02853c                eth_env_set_enetaddr
 .text.eth_env_get_enetaddr_by_index
                0x000000004a02856c       0x34 net/built-in.o
                0x000000004a02856c                eth_env_get_enetaddr_by_index
 .text.eth_env_set_enetaddr_by_index
                0x000000004a0285a0       0x34 net/built-in.o
                0x000000004a0285a0                eth_env_set_enetaddr_by_index
 .text.eth_common_init
                0x000000004a0285d4       0x10 net/built-in.o
                0x000000004a0285d4                eth_common_init
 .text.eth_mac_skip
                0x000000004a0285e4       0x30 net/built-in.o
                0x000000004a0285e4                eth_mac_skip
 .text.eth_get_name
                0x000000004a028614       0x18 net/built-in.o
                0x000000004a028614                eth_get_name
 .text.eth_current_changed
                0x000000004a02862c       0x60 net/built-in.o
                0x000000004a02862c                eth_current_changed
 .text.eth_try_another
                0x000000004a02868c       0x54 net/built-in.o
                0x000000004a02868c                eth_try_another
 .text.eth_set_current
                0x000000004a0286e0       0x58 net/built-in.o
                0x000000004a0286e0                eth_set_current
 .text.start_again_timeout_handler
                0x000000004a028738        0xc net/built-in.o
 .text.dummy_handler
                0x000000004a028744        0x2 net/built-in.o
 *fill*         0x000000004a028746        0x2 
 .text.on_ipaddr
                0x000000004a028748       0x18 net/built-in.o
 .text.on_gatewayip
                0x000000004a028760       0x18 net/built-in.o
 .text.on_netmask
                0x000000004a028778       0x18 net/built-in.o
 .text.on_serverip
                0x000000004a028790       0x18 net/built-in.o
 .text.net_init_loop
                0x000000004a0287a8       0x20 net/built-in.o
 .text.net_clear_handlers
                0x000000004a0287c8       0x24 net/built-in.o
 .text.net_auto_load
                0x000000004a0287ec       0x40 net/built-in.o
                0x000000004a0287ec                net_auto_load
 .text.net_init
                0x000000004a02882c       0x50 net/built-in.o
                0x000000004a02882c                net_init
 .text.net_start_again
                0x000000004a02887c       0xec net/built-in.o
                0x000000004a02887c                net_start_again
 .text.net_loop
                0x000000004a028968      0x268 net/built-in.o
                0x000000004a028968                net_loop
 .text.net_set_udp_handler
                0x000000004a028bd0       0x18 net/built-in.o
                0x000000004a028bd0                net_set_udp_handler
 .text.net_get_arp_handler
                0x000000004a028be8        0xc net/built-in.o
                0x000000004a028be8                net_get_arp_handler
 .text.net_set_timeout_handler
                0x000000004a028bf4       0x40 net/built-in.o
                0x000000004a028bf4                net_set_timeout_handler
 .text.net_process_received_packet
                0x000000004a028c34      0x1d4 net/built-in.o
                0x000000004a028c34                net_process_received_packet
 .text.net_eth_hdr_size
                0x000000004a028e08       0x28 net/built-in.o
                0x000000004a028e08                net_eth_hdr_size
 .text.net_set_ether
                0x000000004a028e30       0x78 net/built-in.o
                0x000000004a028e30                net_set_ether
 .text.net_update_ether
                0x000000004a028ea8       0x6c net/built-in.o
                0x000000004a028ea8                net_update_ether
 .text.net_set_ip_header
                0x000000004a028f14       0x60 net/built-in.o
                0x000000004a028f14                net_set_ip_header
 .text.net_set_udp_header
                0x000000004a028f74       0x74 net/built-in.o
                0x000000004a028f74                net_set_udp_header
 .text.net_send_udp_packet
                0x000000004a028fe8       0xb8 net/built-in.o
                0x000000004a028fe8                net_send_udp_packet
 .text.copy_filename
                0x000000004a0290a0       0x2c net/built-in.o
                0x000000004a0290a0                copy_filename
 .text.on_bootfile
                0x000000004a0290cc       0x20 net/built-in.o
 .text.ip_to_string
                0x000000004a0290ec       0x28 net/built-in.o
                0x000000004a0290ec                ip_to_string
 .text.string_to_vlan
                0x000000004a029114       0x28 net/built-in.o
                0x000000004a029114                string_to_vlan
 .text.on_nvlan
                0x000000004a02913c       0x18 net/built-in.o
 .text.on_vlan  0x000000004a029154       0x18 net/built-in.o
 .text.rpc_lookup_reply
                0x000000004a02916c       0x6c net/built-in.o
 .text.nfs_mount_reply
                0x000000004a0291d8       0x64 net/built-in.o
 .text.nfs_umountall_reply
                0x000000004a02923c       0x60 net/built-in.o
 .text.nfs_lookup_reply
                0x000000004a02929c       0xb8 net/built-in.o
 .text.nfs3_get_attributes_offset
                0x000000004a029354        0xc net/built-in.o
 .text.nfs_readlink_reply
                0x000000004a029360       0xb4 net/built-in.o
 .text.basename
                0x000000004a029414       0x20 net/built-in.o
 .text.rpc_req  0x000000004a029434       0xbc net/built-in.o
 .text.nfs_umountall_req
                0x000000004a0294f0       0x54 net/built-in.o
 .text.nfs_read_reply.isra.2
                0x000000004a029544       0xe4 net/built-in.o
 .text.nfs_readlink_req
                0x000000004a029628       0x84 net/built-in.o
 .text.nfs_mount_req
                0x000000004a0296ac       0x88 net/built-in.o
 .text.nfs_read_req
                0x000000004a029734       0xa4 net/built-in.o
 .text.nfs_lookup_req
                0x000000004a0297d8      0x104 net/built-in.o
 .text.nfs_send
                0x000000004a0298dc       0xd4 net/built-in.o
 .text.nfs_handler
                0x000000004a0299b0      0x184 net/built-in.o
 .text.nfs_timeout_handler
                0x000000004a029b34       0x4c net/built-in.o
 .text.nfs_start
                0x000000004a029b80       0xfc net/built-in.o
                0x000000004a029b80                nfs_start
 .text.ping_timeout_handler
                0x000000004a029c7c       0x14 net/built-in.o
 .text.ping_start
                0x000000004a029c90       0xd4 net/built-in.o
                0x000000004a029c90                ping_start
 .text.ping_receive
                0x000000004a029d64       0xa4 net/built-in.o
                0x000000004a029d64                ping_receive
 .text.tftp_send
                0x000000004a029e08      0x128 net/built-in.o
 .text.tftp_handler
                0x000000004a029f30      0x264 net/built-in.o
 .text.tftp_timeout_handler
                0x000000004a02a194       0x64 net/built-in.o
 .text.tftp_start
                0x000000004a02a1f8      0x280 net/built-in.o
                0x000000004a02a1f8                tftp_start
 .text.do_dm_dump_devres
                0x000000004a02a478        0x4 test/dm/built-in.o
 .text.do_dm    0x000000004a02a47c       0x44 test/dm/built-in.o
 .text.do_dm_dump_uclass
                0x000000004a02a4c0        0xa test/dm/built-in.o
 .text.do_dm_dump_all
                0x000000004a02a4ca        0xa test/dm/built-in.o
 .text.__ashldi3
                0x000000004a02a4d4       0x20 arch/arm/lib/lib.a(ashldi3.o)
                0x000000004a02a4d4                __ashldi3
                0x000000004a02a4d4                __aeabi_llsl
 .text.__udivsi3
                0x000000004a02a4f4       0x9c arch/arm/lib/lib.a(lib1funcs.o)
                0x000000004a02a4f4                __udivsi3
                0x000000004a02a4f4                __aeabi_uidiv
 .text.__divsi3
                0x000000004a02a590       0xcc arch/arm/lib/lib.a(lib1funcs.o)
                0x000000004a02a590                __aeabi_idiv
                0x000000004a02a590                __divsi3
 .text.__aeabi_uidivmod
                0x000000004a02a65c       0x30 arch/arm/lib/lib.a(lib1funcs.o)
                0x000000004a02a65c                __aeabi_uidivmod
                0x000000004a02a674                __aeabi_idivmod
 .text.Ldiv0    0x000000004a02a68c       0x10 arch/arm/lib/lib.a(lib1funcs.o)
 .text.__lshldi3
                0x000000004a02a69c       0x20 arch/arm/lib/lib.a(lshrdi3.o)
                0x000000004a02a69c                __aeabi_llsr
                0x000000004a02a69c                __lshrdi3
 .text.__div0   0x000000004a02a6bc        0x4 arch/arm/lib/lib.a(div0.o)
                0x000000004a02a6bc                __div0

.glue_7         0x000000004a02a6c0        0x0
 .glue_7        0x000000004a02a6c0        0x0 linker stubs

.glue_7t        0x000000004a02a6c0        0x0
 .glue_7t       0x000000004a02a6c0        0x0 linker stubs

.vfp11_veneer   0x000000004a02a6c0        0x0
 .vfp11_veneer  0x000000004a02a6c0        0x0 linker stubs

.v4_bx          0x000000004a02a6c0        0x0
 .v4_bx         0x000000004a02a6c0        0x0 linker stubs

.iplt           0x000000004a02a6c0        0x0
 .iplt          0x000000004a02a6c0        0x0 arch/arm/cpu/armv7/start.o

.__secure_start
                0x000000004a02b000        0x0
 *(.__secure_start)
 .__secure_start
                0x000000004a02b000        0x0 arch/arm/lib/built-in.o
                0x000000004a02b000                __secure_start

.secure_text    0x000000004a02b000      0x610
 *(._secure.text)
 ._secure.text  0x000000004a02b000      0x5fc arch/arm/cpu/armv7/built-in.o
                0x000000004a02b098                _do_nonsec_entry
                0x000000004a02b0ac                _nonsec_init
                0x000000004a02b140                _psci_vectors
                0x000000004a02b164                default_psci_vector
                0x000000004a02b168                psci_migrate_info_up_cpu
                0x000000004a02b168                psci_cpu_suspend
                0x000000004a02b168                psci_version
                0x000000004a02b168                psci_affinity_info
                0x000000004a02b168                psci_migrate
                0x000000004a02b168                psci_system_reset
                0x000000004a02b168                psci_system_suspend
                0x000000004a02b168                psci_system_off
                0x000000004a02b168                psi_stat_residency
                0x000000004a02b168                psci_features
                0x000000004a02b168                psci_cpu_default_suspend
                0x000000004a02b168                psci_stat_count
                0x000000004a02b168                psci_node_hw_state
                0x000000004a02b168                psci_set_suspend_mode
                0x000000004a02b168                psci_migrate_info_type
                0x000000004a02b168                psci_cpu_freeze
                0x000000004a02b270                psci_get_cpu_id
                0x000000004a02b27c                psci_v7_flush_dcache_all
                0x000000004a02b320                psci_disable_smp
                0x000000004a02b338                psci_enable_smp
                0x000000004a02b34c                psci_cpu_off_common
                0x000000004a02b390                psci_stack_setup
                0x000000004a02b3b0                psci_cpu_entry
                0x000000004a02b3e0                psci_save_target_pc
                0x000000004a02b3f0                psci_get_target_pc
                0x000000004a02b428                sunxi_cpu_power_off
                0x000000004a02b49c                psci_fiq_enter
                0x000000004a02b4ec                psci_cpu_on
                0x000000004a02b590                psci_cpu_off
                0x000000004a02b5b0                psci_arch_init
 *fill*         0x000000004a02b5fc        0x4 
 ._secure.text.__stub
                0x000000004a02b600       0x10 linker stubs

.secure_data    0x000000004a02b610       0x10
 *(._secure.data)
 ._secure.data  0x000000004a02b610       0x10 arch/arm/cpu/armv7/built-in.o

.secure_stack   0x000000004a02c000     0x1000
 *(.__secure_stack_start)
 .__secure_stack_start
                0x000000004a02c000        0x0 arch/arm/lib/built-in.o
                0x000000004a02c000                __secure_stack_start
                0x000000004a02d000                . = (. + 0x1000)
 *fill*         0x000000004a02c000     0x1000 
                0x000000004a02d000                . = ALIGN (0x1000)
 *(.__secure_stack_end)
 .__secure_stack_end
                0x000000004a02d000        0x0 arch/arm/lib/built-in.o
                0x000000004a02d000                __secure_stack_end

.__secure_end   0x000000004a02d000        0x4
 *(.__secure_end)
 .__secure_end  0x000000004a02d000        0x0 arch/arm/lib/built-in.o
                0x000000004a02d000                __secure_end
                0x000000004a02d000        0x4 LONG 0x1d1071c
                0x000000004a02d004                . = ALIGN (0x4)

.rodata         0x000000004a02d008     0xfc4c
 *(SORT(.rodata*))
 .rodata.efi_boot_services
                0x000000004a02d008       0xc8 lib/built-in.o
 .rodata.efi_file_handle_protocol
                0x000000004a02d0d0       0x30 lib/built-in.o
 .rodata        0x000000004a02d100       0x80 arch/arm/lib/built-in.o
 .rodata.CSWTCH.28
                0x000000004a02d180       0x20 common/built-in.o
 .rodata.CSWTCH.30
                0x000000004a02d1a0       0x14 cmd/built-in.o
 .rodata.CSWTCH.48
                0x000000004a02d1b4       0x20 disk/built-in.o
 .rodata.boot_os
                0x000000004a02d1d4       0x60 common/built-in.o
 .rodata.color  0x000000004a02d234       0x40 lib/built-in.o
 .rodata.crc_table
                0x000000004a02d274      0x400 lib/built-in.o
 .rodata.desc_and_len_tbl
                0x000000004a02d674       0x30 cmd/built-in.o
 .rodata.efi_con_out
                0x000000004a02d6a4       0x28 lib/built-in.o
                0x000000004a02d6a4                efi_con_out
 .rodata.efi_console_control
                0x000000004a02d6cc        0xc lib/built-in.o
                0x000000004a02d6cc                efi_console_control
 .rodata.efi_device_path_to_text
                0x000000004a02d6d8        0x8 lib/built-in.o
                0x000000004a02d6d8                efi_device_path_to_text
 .rodata.efi_runtime_detach_list
                0x000000004a02d6e0       0x50 lib/built-in.o
 .rodata.env_flags_varaccess_mask
                0x000000004a02d730       0x10 env/built-in.o
 .rodata.ext_csd_bits.9694
                0x000000004a02d740       0x14 drivers/built-in.o
 .rodata.ext_to_hostcaps.9695
                0x000000004a02d754       0x1c drivers/built-in.o
 .rodata.fbase  0x000000004a02d770       0x10 drivers/built-in.o
 .rodata.fdt_errtable
                0x000000004a02d780       0x48 lib/built-in.o
 .rodata.generic_simple_bus_ids
                0x000000004a02d7c8       0x18 drivers/built-in.o
 .rodata.gpio_function
                0x000000004a02d7e0       0x14 drivers/gpio/built-in.o
 .rodata.gpio_sunxi_ops
                0x000000004a02d7f4       0x28 drivers/gpio/built-in.o
 .rodata.hub_id_table
                0x000000004a02d81c       0x30 common/built-in.o
 .rodata.init_sequence_f
                0x000000004a02d84c       0xa4 common/built-in.o
 .rodata.kbd_id_table
                0x000000004a02d8f0       0x30 common/built-in.o
 .rodata.keywords
                0x000000004a02d920       0x98 cmd/built-in.o
 .rodata.mass_storage_id_table
                0x000000004a02d9b8       0x30 common/built-in.o
 .rodata.mvtwsi_i2c_ids
                0x000000004a02d9e8       0x20 drivers/i2c/built-in.o
 .rodata.mvtwsi_i2c_ops
                0x000000004a02da08       0x18 drivers/i2c/built-in.o
 .rodata.ns16550_serial_ids
                0x000000004a02da20       0x60 drivers/serial/built-in.o
 .rodata.ns16550_serial_ops
                0x000000004a02da80       0x14 drivers/serial/built-in.o
                0x000000004a02da80                ns16550_serial_ops
 .rodata.op_adv
                0x000000004a02da94      0x100 cmd/built-in.o
                0x000000004a02da94                op_adv
 .rodata.op_table
                0x000000004a02db94       0x68 cmd/built-in.o
 .rodata.reg_0_5_desc_tbl
                0x000000004a02dbfc       0x30 cmd/built-in.o
 .rodata.reg_0_desc_tbl
                0x000000004a02dc2c       0x78 cmd/built-in.o
 .rodata.reg_1_desc_tbl
                0x000000004a02dca4       0xc0 cmd/built-in.o
 .rodata.reg_2_desc_tbl
                0x000000004a02dd64        0xc cmd/built-in.o
 .rodata.reg_3_desc_tbl
                0x000000004a02dd70       0x24 cmd/built-in.o
 .rodata.reg_4_desc_tbl
                0x000000004a02dd94       0x90 cmd/built-in.o
 .rodata.reg_5_desc_tbl
                0x000000004a02de24       0x90 cmd/built-in.o
 .rodata.root_info
                0x000000004a02deb4        0x8 drivers/built-in.o
 .rodata.sd_au_size
                0x000000004a02debc       0x40 drivers/built-in.o
 .rodata.smbios_write_funcs
                0x000000004a02defc       0x1c lib/built-in.o
 .rodata.soc_data_a_all
                0x000000004a02df18        0x8 drivers/gpio/built-in.o
 .rodata.soc_data_l_1
                0x000000004a02df20        0x8 drivers/gpio/built-in.o
 .rodata.soc_data_l_2
                0x000000004a02df28        0x8 drivers/gpio/built-in.o
 .rodata.soc_data_l_3
                0x000000004a02df30        0x8 drivers/gpio/built-in.o
 .rodata.sunxi_gpio_ids
                0x000000004a02df38       0x90 drivers/gpio/built-in.o
 .rodata.sunxi_mmc_ops
                0x000000004a02dfc8       0x14 drivers/built-in.o
 .rodata.uimage_arch
                0x000000004a02dfdc      0x138 common/built-in.o
 .rodata.uimage_comp
                0x000000004a02e114       0x54 common/built-in.o
 .rodata.uimage_os
                0x000000004a02e168       0x78 common/built-in.o
 .rodata.uimage_type
                0x000000004a02e1e0      0x18c common/built-in.o
 .rodata.usb_hub_ids
                0x000000004a02e36c       0x10 common/built-in.o
 .rodata.usb_kbd_ids
                0x000000004a02e37c       0x10 common/built-in.o
 .rodata.usb_mass_storage_ids
                0x000000004a02e38c       0x10 common/built-in.o
 .rodata.widths.9696
                0x000000004a02e39c       0x14 drivers/built-in.o
 .rodata.CSWTCH.30
                0x000000004a02e3b0        0x8 common/built-in.o
 .rodata.crc16_tab
                0x000000004a02e3b8      0x200 lib/built-in.o
 .rodata.dbase.7300
                0x000000004a02e5b8       0x40 lib/built-in.o
 .rodata.dext.7301
                0x000000004a02e5f8       0x40 lib/built-in.o
 .rodata.distfix
                0x000000004a02e638       0x80 lib/built-in.o
 .rodata.lbase.7298
                0x000000004a02e6b8       0x3e lib/built-in.o
 .rodata.lenfix
                0x000000004a02e6f6      0x800 lib/built-in.o
 .rodata.lext.7299
                0x000000004a02eef6       0x3e lib/built-in.o
 .rodata.order.7394
                0x000000004a02ef34       0x26 lib/built-in.o
 .rodata.str2.2
                0x000000004a02ef5a       0x56 lib/built-in.o
 .rodata        0x000000004a02efb0       0x12 cmd/built-in.o
 .rodata        0x000000004a02efc2       0x19 common/built-in.o
 .rodata        0x000000004a02efdb       0x10 disk/built-in.o
 .rodata        0x000000004a02efeb        0x3 env/built-in.o
 .rodata        0x000000004a02efee       0x20 lib/built-in.o
 .rodata        0x000000004a02f00e        0x7 net/built-in.o
 .rodata.CSWTCH.66
                0x000000004a02f015       0x16 common/built-in.o
 .rodata.END    0x000000004a02f02b        0x4 lib/built-in.o
 .rodata.ROOT   0x000000004a02f02f       0x14 lib/built-in.o
 .rodata.__FUNCTION__.8663
                0x000000004a02f043       0x17 common/built-in.o
 .rodata.__FUNCTION__.8808
                0x000000004a02f05a       0x17 common/built-in.o
 .rodata.__func__.10089
                0x000000004a02f071       0x15 common/built-in.o
 .rodata.__func__.11464
                0x000000004a02f086        0xb board/sunxi/built-in.o
 .rodata.__func__.6972
                0x000000004a02f091        0xb fs/built-in.o
 .rodata.__func__.7399
                0x000000004a02f09c        0x7 cmd/built-in.o
 .rodata.__func__.7868
                0x000000004a02f0a3        0xe common/built-in.o
 .rodata.__func__.7964
                0x000000004a02f0b1        0xc lib/built-in.o
 .rodata.__func__.8270
                0x000000004a02f0bd        0xe disk/built-in.o
 .rodata.__func__.8280
                0x000000004a02f0cb        0xf disk/built-in.o
 .rodata.__func__.8292
                0x000000004a02f0da       0x12 disk/built-in.o
 .rodata.__func__.8303
                0x000000004a02f0ec       0x13 disk/built-in.o
 .rodata.__func__.8366
                0x000000004a02f0ff        0xc disk/built-in.o
 .rodata.__func__.8384
                0x000000004a02f10b       0x13 disk/built-in.o
 .rodata.__func__.8434
                0x000000004a02f11e        0xd disk/built-in.o
 .rodata.__func__.8446
                0x000000004a02f12b       0x17 disk/built-in.o
 .rodata.__func__.8451
                0x000000004a02f142        0xd disk/built-in.o
 .rodata.__func__.8540
                0x000000004a02f14f       0x18 common/built-in.o
 .rodata.__func__.8955
                0x000000004a02f167        0xe drivers/built-in.o
 .rodata.__func__.9587
                0x000000004a02f175        0xd drivers/built-in.o
 .rodata.__func__.9593
                0x000000004a02f182       0x11 drivers/built-in.o
 .rodata.__func__.9597
                0x000000004a02f193       0x18 drivers/built-in.o
 .rodata.__func__.9601
                0x000000004a02f1ab       0x18 drivers/built-in.o
 .rodata.__func__.9605
                0x000000004a02f1c3        0xd drivers/built-in.o
 .rodata.__func__.9609
                0x000000004a02f1d0       0x14 drivers/built-in.o
 .rodata.__func__.9613
                0x000000004a02f1e4       0x14 drivers/built-in.o
 .rodata.__func__.9728
                0x000000004a02f1f8        0x9 drivers/built-in.o
 .rodata.__func__.9935
                0x000000004a02f201        0xf common/built-in.o
 .rodata._ctype
                0x000000004a02f210      0x100 lib/built-in.o
                0x000000004a02f210                _ctype
 .rodata.default_environment
                0x000000004a02f310     0x100d env/built-in.o
                0x000000004a02f310                default_environment
 .rodata.digits.7019
                0x000000004a03031d       0x10 lib/built-in.o
 .rodata.efi_block_io_guid
                0x000000004a03032d       0x10 lib/built-in.o
 .rodata.efi_file_info_guid
                0x000000004a03033d       0x10 lib/built-in.o
                0x000000004a03033d                efi_file_info_guid
 .rodata.efi_global_variable_guid
                0x000000004a03034d       0x10 lib/built-in.o
                0x000000004a03034d                efi_global_variable_guid
 .rodata.efi_guid_console_control
                0x000000004a03035d       0x10 lib/built-in.o
                0x000000004a03035d                efi_guid_console_control
 .rodata.efi_guid_device_path
                0x000000004a03036d       0x10 lib/built-in.o
                0x000000004a03036d                efi_guid_device_path
 .rodata.efi_guid_device_path_to_text_protocol
                0x000000004a03037d       0x10 lib/built-in.o
                0x000000004a03037d                efi_guid_device_path_to_text_protocol
 .rodata.efi_guid_loaded_image
                0x000000004a03038d       0x10 lib/built-in.o
                0x000000004a03038d                efi_guid_loaded_image
 .rodata.efi_net_guid
                0x000000004a03039d       0x10 lib/built-in.o
 .rodata.efi_pxe_guid
                0x000000004a0303ad       0x10 lib/built-in.o
 .rodata.efi_simple_file_system_protocol_guid
                0x000000004a0303bd       0x10 lib/built-in.o
                0x000000004a0303bd                efi_simple_file_system_protocol_guid
 .rodata.env_flags_varaccess_rep
                0x000000004a0303cd        0x5 env/built-in.o
 .rodata.env_flags_vartype_rep
                0x000000004a0303d2        0x7 env/built-in.o
 .rodata.erase_seq
                0x000000004a0303d9        0x4 common/built-in.o
 .rodata.hex_asc
                0x000000004a0303dd       0x11 lib/built-in.o
 .rodata.hexchars.7849
                0x000000004a0303ee       0x11 lib/built-in.o
 .rodata.multipliers
                0x000000004a0303ff       0x10 drivers/built-in.o
 .rodata.names.7242
                0x000000004a03040f        0x6 lib/built-in.o
 .rodata.net_bcast_ethaddr
                0x000000004a030415        0x6 net/built-in.o
                0x000000004a030415                net_bcast_ethaddr
 .rodata.smbios_guid
                0x000000004a03041b       0x10 lib/built-in.o
 .rodata.str1.1
                0x000000004a03042b       0x5c arch/arm/cpu/armv7/built-in.o
 .rodata.str1.1
                0x000000004a030487      0x3fe arch/arm/lib/built-in.o
                                        0x457 (size before relaxing)
 .rodata.str1.1
                0x000000004a030885       0x7f arch/arm/mach-sunxi/built-in.o
                                         0x80 (size before relaxing)
 .rodata.str1.1
                0x000000004a030904      0x193 board/sunxi/built-in.o
                                        0x1a1 (size before relaxing)
 .rodata.str1.1
                0x000000004a030a97     0x5e69 cmd/built-in.o
                                       0x648e (size before relaxing)
 .rodata.str1.1
                0x000000004a036900     0x2732 common/built-in.o
                                       0x2aae (size before relaxing)
 .rodata.str1.1
                0x000000004a039032      0xb81 disk/built-in.o
                                        0xbc4 (size before relaxing)
 .rodata.str1.1
                0x000000004a039bb3      0x7fb drivers/built-in.o
                                        0x933 (size before relaxing)
 .rodata.str1.1
                0x000000004a03a3ae      0x2a6 drivers/gpio/built-in.o
                                        0x2c3 (size before relaxing)
 .rodata.str1.1
                0x000000004a03a654       0xc5 drivers/i2c/built-in.o
                                         0xf1 (size before relaxing)
 .rodata.str1.1
                0x000000004a03a719      0x11e drivers/serial/built-in.o
                                        0x184 (size before relaxing)
 .rodata.str1.1
                0x000000004a03a837      0x12a drivers/usb/host/built-in.o
                                        0x140 (size before relaxing)
 .rodata.str1.1
                0x000000004a03a961      0x3c8 env/built-in.o
                                        0x463 (size before relaxing)
 .rodata.str1.1
                0x000000004a03ad29      0x733 fs/built-in.o
                                        0x799 (size before relaxing)
 .rodata.str1.1
                0x000000004a03b45c      0xeff lib/built-in.o
                                       0x10d7 (size before relaxing)
 .rodata.str1.1
                0x000000004a03c35b      0x754 net/built-in.o
                                        0x84e (size before relaxing)
 .rodata.str1.1
                0x000000004a03caaf       0xdc test/dm/built-in.o
                                         0xe2 (size before relaxing)
 .rodata.tab_seq
                0x000000004a03cb8b        0x9 common/built-in.o
 .rodata.us_direction
                0x000000004a03cb94       0x20 common/built-in.o
 .rodata.usb_kbd_arrow
                0x000000004a03cbb4        0x4 common/built-in.o
 .rodata.usb_kbd_num_keypad
                0x000000004a03cbb8       0x14 common/built-in.o
 .rodata.usb_kbd_numkey
                0x000000004a03cbcc       0x1b common/built-in.o
 .rodata.usb_kbd_numkey_shifted
                0x000000004a03cbe7       0x1b common/built-in.o
 .rodata.version_string
                0x000000004a03cc02       0x52 cmd/built-in.o
                0x000000004a03cc02                version_string

.hash           0x000000004a03cc54       0x2c
 .hash          0x000000004a03cc54       0x2c arch/arm/cpu/armv7/start.o
                0x000000004a03cc80                . = ALIGN (0x4)

.data           0x000000004a03cc80     0x24b0
 *(.data*)
 .data.sunxi_usb_phy
                0x000000004a03cc80       0x80 arch/arm/mach-sunxi/built-in.o
 .data.bootm_help_text
                0x000000004a03cd00      0x38b cmd/built-in.o
 *fill*         0x000000004a03d08b        0x1 
 .data.cmd_bootm_sub
                0x000000004a03d08c       0xfc cmd/built-in.o
 .data.source_help_text
                0x000000004a03d188       0x4e cmd/built-in.o
 .data.bootefi_help_text
                0x000000004a03d1d6      0x180 cmd/built-in.o
 .data.bootz_help_text
                0x000000004a03d356      0x208 cmd/built-in.o
 .data.root.7886
                0x000000004a03d55e        0x2 cmd/built-in.o
 .data.tabs.7971
                0x000000004a03d560       0x21 cmd/built-in.o
 .data.fdt_help_text
                0x000000004a03d581      0x649 cmd/built-in.o
 .data.i2c_help_text
                0x000000004a03dbca      0x41e cmd/built-in.o
 .data.cmd_i2c_sub
                0x000000004a03dfe8      0x1c0 cmd/built-in.o
 .data.i2c_dp_last_length
                0x000000004a03e1a8        0x4 cmd/built-in.o
 .data.do_echo  0x000000004a03e1ac        0x4 cmd/built-in.o
 .data.dp_last_length
                0x000000004a03e1b0        0x4 cmd/built-in.o
 .data.curr_device
                0x000000004a03e1b4        0x4 cmd/built-in.o
 .data.cmd_mmc  0x000000004a03e1b8      0x118 cmd/built-in.o
 .data.cmd_pxe_sub
                0x000000004a03e2d0       0x38 cmd/built-in.o
 .data.pxe_default_paths
                0x000000004a03e308       0x10 cmd/built-in.o
                0x000000004a03e308                pxe_default_paths
 .data.usb_stor_curr_dev
                0x000000004a03e318        0x4 cmd/built-in.o
 .data.imgextract_help_text
                0x000000004a03e31c       0x55 cmd/built-in.o
 .data.env_help_text
                0x000000004a03e371      0x24f cmd/built-in.o
 .data.env_id   0x000000004a03e5c0        0x4 cmd/built-in.o
 .data.cmd_env_sub
                0x000000004a03e5c4      0x118 cmd/built-in.o
 .data.reserved_list
                0x000000004a03e6dc       0x84 common/built-in.o
 .data.init_sequence_r
                0x000000004a03e760       0x80 common/built-in.o
 .data.npi_boardtype
                0x000000004a03e7e0        0x4 common/built-in.o
                0x000000004a03e7e0                npi_boardtype
 .data.nanopi_board
                0x000000004a03e7e4      0x180 common/built-in.o
                0x000000004a03e7e4                nanopi_board
 .data.of_busses
                0x000000004a03e964       0x18 common/built-in.o
 .data.usb_scan_list
                0x000000004a03e97c        0x8 common/built-in.o
 .data.hist_cur
                0x000000004a03e984        0x4 common/built-in.o
 .data.av_      0x000000004a03e988      0x408 common/built-in.o
 .data.sbrk_base
                0x000000004a03ed90        0x4 common/built-in.o
 .data.trim_threshold
                0x000000004a03ed94        0x4 common/built-in.o
 .data.load_addr
                0x000000004a03ed98        0x4 common/built-in.o
                0x000000004a03ed98                load_addr
 .data.stdio_names
                0x000000004a03ed9c        0xc common/built-in.o
                0x000000004a03ed9c                stdio_names
 .data.system_guid
                0x000000004a03eda8       0x10 disk/built-in.o
 .data.cur_dev_num
                0x000000004a03edb8        0x4 drivers/built-in.o
 .data.env_htab
                0x000000004a03edbc       0x10 env/built-in.o
                0x000000004a03edbc                env_htab
 .data.first_call
                0x000000004a03edcc        0x8 env/built-in.o
 .data.fstypes  0x000000004a03edd4       0xa8 fs/built-in.o
 .data.ext4fs_indir3_blkno
                0x000000004a03ee7c        0x4 fs/built-in.o
                0x000000004a03ee7c                ext4fs_indir3_blkno
 .data.ext4fs_indir1_blkno
                0x000000004a03ee80        0x4 fs/built-in.o
                0x000000004a03ee80                ext4fs_indir1_blkno
 .data.ext4fs_indir2_blkno
                0x000000004a03ee84        0x4 fs/built-in.o
                0x000000004a03ee84                ext4fs_indir2_blkno
 .data.efi_tpl  0x000000004a03ee88        0x4 lib/built-in.o
 .data.efi_is_direct_boot
                0x000000004a03ee8c        0x1 lib/built-in.o
 *fill*         0x000000004a03ee8d        0x3 
 .data.efi_obj_list
                0x000000004a03ee90        0x8 lib/built-in.o
                0x000000004a03ee90                efi_obj_list
 .data.lastoff.9945
                0x000000004a03ee98        0x4 lib/built-in.o
 .data.efi_runtime_mmio
                0x000000004a03ee9c        0x8 lib/built-in.o
                0x000000004a03ee9c                efi_runtime_mmio
 .data.efi_con_in
                0x000000004a03eea4        0xc lib/built-in.o
                0x000000004a03eea4                efi_con_in
 .data.efi_console_input_obj
                0x000000004a03eeb0       0x8c lib/built-in.o
 .data.__compound_literal.2
                0x000000004a03ef3c       0x10 lib/built-in.o
 .data.__compound_literal.4
                0x000000004a03ef4c       0x10 lib/built-in.o
 .data.efi_console_output_obj
                0x000000004a03ef5c       0x8c lib/built-in.o
 .data.efi_cout_modes
                0x000000004a03efe8       0x24 lib/built-in.o
 .data.efi_console_control_obj
                0x000000004a03f00c       0x8c lib/built-in.o
 .data.efi_con_mode
                0x000000004a03f098       0x18 lib/built-in.o
 .data.efi_mem  0x000000004a03f0b0        0x8 lib/built-in.o
                0x000000004a03f0b0                efi_mem
 .data.y        0x000000004a03f0b8        0x4 lib/built-in.o
 .data.first_call.7593
                0x000000004a03f0bc        0x4 net/built-in.o
 .data.net_native_vlan
                0x000000004a03f0c0        0x2 net/built-in.o
                0x000000004a03f0c0                net_native_vlan
 .data.net_our_vlan
                0x000000004a03f0c2        0x2 net/built-in.o
                0x000000004a03f0c2                net_our_vlan
 .data.nfs_offset
                0x000000004a03f0c4        0x4 net/built-in.o
 .data.supported_nfs_versions
                0x000000004a03f0c8        0x1 net/built-in.o
 *fill*         0x000000004a03f0c9        0x1 
 .data.tftp_block_size_option
                0x000000004a03f0ca        0x2 net/built-in.o
 .data.tftp_timeout_count_max
                0x000000004a03f0cc        0x4 net/built-in.o
                0x000000004a03f0cc                tftp_timeout_count_max
 .data.timeout_ms
                0x000000004a03f0d0        0x4 net/built-in.o
 .data.tftp_block_size
                0x000000004a03f0d4        0x2 net/built-in.o
 *fill*         0x000000004a03f0d6        0x2 
 .data.timeout_count_max
                0x000000004a03f0d8        0x4 net/built-in.o
 .data.test_commands
                0x000000004a03f0dc       0x54 test/dm/built-in.o

.got            0x000000004a03f130        0x0
 .got           0x000000004a03f130        0x0 arch/arm/cpu/armv7/start.o

.got.plt        0x000000004a03f130        0xc
 .got.plt       0x000000004a03f130        0xc arch/arm/cpu/armv7/start.o
                0x000000004a03f130                _GLOBAL_OFFSET_TABLE_

.igot.plt       0x000000004a03f13c        0x0
 .igot.plt      0x000000004a03f13c        0x0 arch/arm/cpu/armv7/start.o
                0x000000004a03f13c                . = ALIGN (0x4)
                0x000000004a03f13c                . = .
                0x000000004a03f13c                . = ALIGN (0x4)

.u_boot_list    0x000000004a03f13c     0x1020
 *(SORT(.u_boot_list*))
 .u_boot_list_2_blk_driver_1
                0x000000004a03f13c        0x0 drivers/built-in.o
 .u_boot_list_2_blk_driver_2_mmc
                0x000000004a03f13c       0x18 drivers/built-in.o
                0x000000004a03f13c                _u_boot_list_2_blk_driver_2_mmc
 .u_boot_list_2_blk_driver_2_usb
                0x000000004a03f154       0x18 common/built-in.o
                0x000000004a03f154                _u_boot_list_2_blk_driver_2_usb
 .u_boot_list_2_blk_driver_3
                0x000000004a03f16c        0x0 drivers/built-in.o
 .u_boot_list_2_cmd_1
                0x000000004a03f16c        0x0 cmd/built-in.o
 .u_boot_list_2_cmd_1
                0x000000004a03f16c        0x0 common/built-in.o
 .u_boot_list_2_cmd_2_base
                0x000000004a03f16c       0x1c cmd/built-in.o
                0x000000004a03f16c                _u_boot_list_2_cmd_2_base
 .u_boot_list_2_cmd_2_bdinfo
                0x000000004a03f188       0x1c cmd/built-in.o
                0x000000004a03f188                _u_boot_list_2_cmd_2_bdinfo
 .u_boot_list_2_cmd_2_boot
                0x000000004a03f1a4       0x1c cmd/built-in.o
                0x000000004a03f1a4                _u_boot_list_2_cmd_2_boot
 .u_boot_list_2_cmd_2_bootd
                0x000000004a03f1c0       0x1c cmd/built-in.o
                0x000000004a03f1c0                _u_boot_list_2_cmd_2_bootd
 .u_boot_list_2_cmd_2_bootefi
                0x000000004a03f1dc       0x1c cmd/built-in.o
                0x000000004a03f1dc                _u_boot_list_2_cmd_2_bootefi
 .u_boot_list_2_cmd_2_bootelf
                0x000000004a03f1f8       0x1c cmd/built-in.o
                0x000000004a03f1f8                _u_boot_list_2_cmd_2_bootelf
 .u_boot_list_2_cmd_2_bootm
                0x000000004a03f214       0x1c cmd/built-in.o
                0x000000004a03f214                _u_boot_list_2_cmd_2_bootm
 .u_boot_list_2_cmd_2_bootp
                0x000000004a03f230       0x1c cmd/built-in.o
                0x000000004a03f230                _u_boot_list_2_cmd_2_bootp
 .u_boot_list_2_cmd_2_bootvx
                0x000000004a03f24c       0x1c cmd/built-in.o
                0x000000004a03f24c                _u_boot_list_2_cmd_2_bootvx
 .u_boot_list_2_cmd_2_bootz
                0x000000004a03f268       0x1c cmd/built-in.o
                0x000000004a03f268                _u_boot_list_2_cmd_2_bootz
 .u_boot_list_2_cmd_2_cmp
                0x000000004a03f284       0x1c cmd/built-in.o
                0x000000004a03f284                _u_boot_list_2_cmd_2_cmp
 .u_boot_list_2_cmd_2_coninfo
                0x000000004a03f2a0       0x1c cmd/built-in.o
                0x000000004a03f2a0                _u_boot_list_2_cmd_2_coninfo
 .u_boot_list_2_cmd_2_cp
                0x000000004a03f2bc       0x1c cmd/built-in.o
                0x000000004a03f2bc                _u_boot_list_2_cmd_2_cp
 .u_boot_list_2_cmd_2_crc32
                0x000000004a03f2d8       0x1c cmd/built-in.o
                0x000000004a03f2d8                _u_boot_list_2_cmd_2_crc32
 .u_boot_list_2_cmd_2_dhcp
                0x000000004a03f2f4       0x1c cmd/built-in.o
                0x000000004a03f2f4                _u_boot_list_2_cmd_2_dhcp
 .u_boot_list_2_cmd_2_dm
                0x000000004a03f310       0x1c test/dm/built-in.o
                0x000000004a03f310                _u_boot_list_2_cmd_2_dm
 .u_boot_list_2_cmd_2_echo
                0x000000004a03f32c       0x1c cmd/built-in.o
                0x000000004a03f32c                _u_boot_list_2_cmd_2_echo
 .u_boot_list_2_cmd_2_editenv
                0x000000004a03f348       0x1c cmd/built-in.o
                0x000000004a03f348                _u_boot_list_2_cmd_2_editenv
 .u_boot_list_2_cmd_2_env
                0x000000004a03f364       0x1c cmd/built-in.o
                0x000000004a03f364                _u_boot_list_2_cmd_2_env
 .u_boot_list_2_cmd_2_exit
                0x000000004a03f380       0x1c cmd/built-in.o
                0x000000004a03f380                _u_boot_list_2_cmd_2_exit
 .u_boot_list_2_cmd_2_ext2load
                0x000000004a03f39c       0x1c cmd/built-in.o
                0x000000004a03f39c                _u_boot_list_2_cmd_2_ext2load
 .u_boot_list_2_cmd_2_ext2ls
                0x000000004a03f3b8       0x1c cmd/built-in.o
                0x000000004a03f3b8                _u_boot_list_2_cmd_2_ext2ls
 .u_boot_list_2_cmd_2_ext4load
                0x000000004a03f3d4       0x1c cmd/built-in.o
                0x000000004a03f3d4                _u_boot_list_2_cmd_2_ext4load
 .u_boot_list_2_cmd_2_ext4ls
                0x000000004a03f3f0       0x1c cmd/built-in.o
                0x000000004a03f3f0                _u_boot_list_2_cmd_2_ext4ls
 .u_boot_list_2_cmd_2_ext4size
                0x000000004a03f40c       0x1c cmd/built-in.o
                0x000000004a03f40c                _u_boot_list_2_cmd_2_ext4size
 .u_boot_list_2_cmd_2_false
                0x000000004a03f428       0x1c cmd/built-in.o
                0x000000004a03f428                _u_boot_list_2_cmd_2_false
 .u_boot_list_2_cmd_2_fatinfo
                0x000000004a03f444       0x1c cmd/built-in.o
                0x000000004a03f444                _u_boot_list_2_cmd_2_fatinfo
 .u_boot_list_2_cmd_2_fatload
                0x000000004a03f460       0x1c cmd/built-in.o
                0x000000004a03f460                _u_boot_list_2_cmd_2_fatload
 .u_boot_list_2_cmd_2_fatls
                0x000000004a03f47c       0x1c cmd/built-in.o
                0x000000004a03f47c                _u_boot_list_2_cmd_2_fatls
 .u_boot_list_2_cmd_2_fatsize
                0x000000004a03f498       0x1c cmd/built-in.o
                0x000000004a03f498                _u_boot_list_2_cmd_2_fatsize
 .u_boot_list_2_cmd_2_fatwrite
                0x000000004a03f4b4       0x1c cmd/built-in.o
                0x000000004a03f4b4                _u_boot_list_2_cmd_2_fatwrite
 .u_boot_list_2_cmd_2_fdt
                0x000000004a03f4d0       0x1c cmd/built-in.o
                0x000000004a03f4d0                _u_boot_list_2_cmd_2_fdt
 .u_boot_list_2_cmd_2_fstype
                0x000000004a03f4ec       0x1c cmd/built-in.o
                0x000000004a03f4ec                _u_boot_list_2_cmd_2_fstype
 .u_boot_list_2_cmd_2_go
                0x000000004a03f508       0x1c cmd/built-in.o
                0x000000004a03f508                _u_boot_list_2_cmd_2_go
 .u_boot_list_2_cmd_2_gpio
                0x000000004a03f524       0x1c cmd/built-in.o
                0x000000004a03f524                _u_boot_list_2_cmd_2_gpio
 .u_boot_list_2_cmd_2_gpt
                0x000000004a03f540       0x1c cmd/built-in.o
                0x000000004a03f540                _u_boot_list_2_cmd_2_gpt
 .u_boot_list_2_cmd_2_help
                0x000000004a03f55c       0x1c cmd/built-in.o
                0x000000004a03f55c                _u_boot_list_2_cmd_2_help
 .u_boot_list_2_cmd_2_i2c
                0x000000004a03f578       0x1c cmd/built-in.o
                0x000000004a03f578                _u_boot_list_2_cmd_2_i2c
 .u_boot_list_2_cmd_2_iminfo
                0x000000004a03f594       0x1c cmd/built-in.o
                0x000000004a03f594                _u_boot_list_2_cmd_2_iminfo
 .u_boot_list_2_cmd_2_imxtract
                0x000000004a03f5b0       0x1c cmd/built-in.o
                0x000000004a03f5b0                _u_boot_list_2_cmd_2_imxtract
 .u_boot_list_2_cmd_2_itest
                0x000000004a03f5cc       0x1c cmd/built-in.o
                0x000000004a03f5cc                _u_boot_list_2_cmd_2_itest
 .u_boot_list_2_cmd_2_load
                0x000000004a03f5e8       0x1c cmd/built-in.o
                0x000000004a03f5e8                _u_boot_list_2_cmd_2_load
 .u_boot_list_2_cmd_2_loadb
                0x000000004a03f604       0x1c cmd/built-in.o
                0x000000004a03f604                _u_boot_list_2_cmd_2_loadb
 .u_boot_list_2_cmd_2_loads
                0x000000004a03f620       0x1c cmd/built-in.o
                0x000000004a03f620                _u_boot_list_2_cmd_2_loads
 .u_boot_list_2_cmd_2_loadx
                0x000000004a03f63c       0x1c cmd/built-in.o
                0x000000004a03f63c                _u_boot_list_2_cmd_2_loadx
 .u_boot_list_2_cmd_2_loady
                0x000000004a03f658       0x1c cmd/built-in.o
                0x000000004a03f658                _u_boot_list_2_cmd_2_loady
 .u_boot_list_2_cmd_2_loop
                0x000000004a03f674       0x1c cmd/built-in.o
                0x000000004a03f674                _u_boot_list_2_cmd_2_loop
 .u_boot_list_2_cmd_2_ls
                0x000000004a03f690       0x1c cmd/built-in.o
                0x000000004a03f690                _u_boot_list_2_cmd_2_ls
 .u_boot_list_2_cmd_2_md
                0x000000004a03f6ac       0x1c cmd/built-in.o
                0x000000004a03f6ac                _u_boot_list_2_cmd_2_md
 .u_boot_list_2_cmd_2_meminfo
                0x000000004a03f6c8       0x1c cmd/built-in.o
                0x000000004a03f6c8                _u_boot_list_2_cmd_2_meminfo
 .u_boot_list_2_cmd_2_mii
                0x000000004a03f6e4       0x1c cmd/built-in.o
                0x000000004a03f6e4                _u_boot_list_2_cmd_2_mii
 .u_boot_list_2_cmd_2_mm
                0x000000004a03f700       0x1c cmd/built-in.o
                0x000000004a03f700                _u_boot_list_2_cmd_2_mm
 .u_boot_list_2_cmd_2_mmc
                0x000000004a03f71c       0x1c cmd/built-in.o
                0x000000004a03f71c                _u_boot_list_2_cmd_2_mmc
 .u_boot_list_2_cmd_2_mmcinfo
                0x000000004a03f738       0x1c cmd/built-in.o
                0x000000004a03f738                _u_boot_list_2_cmd_2_mmcinfo
 .u_boot_list_2_cmd_2_mtest
                0x000000004a03f754       0x1c cmd/built-in.o
                0x000000004a03f754                _u_boot_list_2_cmd_2_mtest
 .u_boot_list_2_cmd_2_mw
                0x000000004a03f770       0x1c cmd/built-in.o
                0x000000004a03f770                _u_boot_list_2_cmd_2_mw
 .u_boot_list_2_cmd_2_nfs
                0x000000004a03f78c       0x1c cmd/built-in.o
                0x000000004a03f78c                _u_boot_list_2_cmd_2_nfs
 .u_boot_list_2_cmd_2_nm
                0x000000004a03f7a8       0x1c cmd/built-in.o
                0x000000004a03f7a8                _u_boot_list_2_cmd_2_nm
 .u_boot_list_2_cmd_2_part
                0x000000004a03f7c4       0x1c cmd/built-in.o
                0x000000004a03f7c4                _u_boot_list_2_cmd_2_part
 .u_boot_list_2_cmd_2_ping
                0x000000004a03f7e0       0x1c cmd/built-in.o
                0x000000004a03f7e0                _u_boot_list_2_cmd_2_ping
 .u_boot_list_2_cmd_2_printenv
                0x000000004a03f7fc       0x1c cmd/built-in.o
                0x000000004a03f7fc                _u_boot_list_2_cmd_2_printenv
 .u_boot_list_2_cmd_2_pxe
                0x000000004a03f818       0x1c cmd/built-in.o
                0x000000004a03f818                _u_boot_list_2_cmd_2_pxe
 .u_boot_list_2_cmd_2_question_mark
                0x000000004a03f834       0x1c cmd/built-in.o
                0x000000004a03f834                _u_boot_list_2_cmd_2_question_mark
 .u_boot_list_2_cmd_2_reset
                0x000000004a03f850       0x1c cmd/built-in.o
                0x000000004a03f850                _u_boot_list_2_cmd_2_reset
 .u_boot_list_2_cmd_2_run
                0x000000004a03f86c       0x1c cmd/built-in.o
                0x000000004a03f86c                _u_boot_list_2_cmd_2_run
 .u_boot_list_2_cmd_2_save
                0x000000004a03f888       0x1c cmd/built-in.o
                0x000000004a03f888                _u_boot_list_2_cmd_2_save
 .u_boot_list_2_cmd_2_saveenv
                0x000000004a03f8a4       0x1c cmd/built-in.o
                0x000000004a03f8a4                _u_boot_list_2_cmd_2_saveenv
 .u_boot_list_2_cmd_2_setenv
                0x000000004a03f8c0       0x1c cmd/built-in.o
                0x000000004a03f8c0                _u_boot_list_2_cmd_2_setenv
 .u_boot_list_2_cmd_2_setexpr
                0x000000004a03f8dc       0x1c cmd/built-in.o
                0x000000004a03f8dc                _u_boot_list_2_cmd_2_setexpr
 .u_boot_list_2_cmd_2_showvar
                0x000000004a03f8f8       0x1c common/built-in.o
                0x000000004a03f8f8                _u_boot_list_2_cmd_2_showvar
 .u_boot_list_2_cmd_2_size
                0x000000004a03f914       0x1c cmd/built-in.o
                0x000000004a03f914                _u_boot_list_2_cmd_2_size
 .u_boot_list_2_cmd_2_sleep
                0x000000004a03f930       0x1c cmd/built-in.o
                0x000000004a03f930                _u_boot_list_2_cmd_2_sleep
 .u_boot_list_2_cmd_2_source
                0x000000004a03f94c       0x1c cmd/built-in.o
                0x000000004a03f94c                _u_boot_list_2_cmd_2_source
 .u_boot_list_2_cmd_2_sysboot
                0x000000004a03f968       0x1c cmd/built-in.o
                0x000000004a03f968                _u_boot_list_2_cmd_2_sysboot
 .u_boot_list_2_cmd_2_test
                0x000000004a03f984       0x1c cmd/built-in.o
                0x000000004a03f984                _u_boot_list_2_cmd_2_test
 .u_boot_list_2_cmd_2_tftpboot
                0x000000004a03f9a0       0x1c cmd/built-in.o
                0x000000004a03f9a0                _u_boot_list_2_cmd_2_tftpboot
 .u_boot_list_2_cmd_2_true
                0x000000004a03f9bc       0x1c cmd/built-in.o
                0x000000004a03f9bc                _u_boot_list_2_cmd_2_true
 .u_boot_list_2_cmd_2_usb
                0x000000004a03f9d8       0x1c cmd/built-in.o
                0x000000004a03f9d8                _u_boot_list_2_cmd_2_usb
 .u_boot_list_2_cmd_2_usbboot
                0x000000004a03f9f4       0x1c cmd/built-in.o
                0x000000004a03f9f4                _u_boot_list_2_cmd_2_usbboot
 .u_boot_list_2_cmd_2_version
                0x000000004a03fa10       0x1c cmd/built-in.o
                0x000000004a03fa10                _u_boot_list_2_cmd_2_version
 .u_boot_list_2_cmd_3
                0x000000004a03fa2c        0x0 cmd/built-in.o
 .u_boot_list_2_cmd_3
                0x000000004a03fa2c        0x0 common/built-in.o
 .u_boot_list_2_driver_1
                0x000000004a03fa2c        0x0 drivers/built-in.o
 .u_boot_list_2_driver_2_gpio_sunxi
                0x000000004a03fa2c       0x44 drivers/gpio/built-in.o
                0x000000004a03fa2c                _u_boot_list_2_driver_2_gpio_sunxi
 .u_boot_list_2_driver_2_i2c_generic_chip_drv
                0x000000004a03fa70       0x44 drivers/i2c/built-in.o
                0x000000004a03fa70                _u_boot_list_2_driver_2_i2c_generic_chip_drv
 .u_boot_list_2_driver_2_i2c_mvtwsi
                0x000000004a03fab4       0x44 drivers/i2c/built-in.o
                0x000000004a03fab4                _u_boot_list_2_driver_2_i2c_mvtwsi
 .u_boot_list_2_driver_2_ns16550_serial
                0x000000004a03faf8       0x44 drivers/serial/built-in.o
                0x000000004a03faf8                _u_boot_list_2_driver_2_ns16550_serial
 .u_boot_list_2_driver_2_root_driver
                0x000000004a03fb3c       0x44 drivers/built-in.o
                0x000000004a03fb3c                _u_boot_list_2_driver_2_root_driver
 .u_boot_list_2_driver_2_simple_bus_drv
                0x000000004a03fb80       0x44 drivers/built-in.o
                0x000000004a03fb80                _u_boot_list_2_driver_2_simple_bus_drv
 .u_boot_list_2_driver_2_usb_dev_generic_drv
                0x000000004a03fbc4       0x44 drivers/usb/host/built-in.o
                0x000000004a03fbc4                _u_boot_list_2_driver_2_usb_dev_generic_drv
 .u_boot_list_2_driver_2_usb_generic_hub
                0x000000004a03fc08       0x44 common/built-in.o
                0x000000004a03fc08                _u_boot_list_2_driver_2_usb_generic_hub
 .u_boot_list_2_driver_2_usb_kbd
                0x000000004a03fc4c       0x44 common/built-in.o
                0x000000004a03fc4c                _u_boot_list_2_driver_2_usb_kbd
 .u_boot_list_2_driver_2_usb_mass_storage
                0x000000004a03fc90       0x44 common/built-in.o
                0x000000004a03fc90                _u_boot_list_2_driver_2_usb_mass_storage
 .u_boot_list_2_driver_3
                0x000000004a03fcd4        0x0 drivers/built-in.o
 .u_boot_list_2_driver_info_1
                0x000000004a03fcd4        0x0 drivers/built-in.o
 .u_boot_list_2_driver_info_3
                0x000000004a03fcd4        0x0 drivers/built-in.o
 .u_boot_list_2_env_clbk_1
                0x000000004a03fcd4        0x0 env/built-in.o
 .u_boot_list_2_env_clbk_2_baudrate
                0x000000004a03fcd4        0x8 drivers/serial/built-in.o
                0x000000004a03fcd4                _u_boot_list_2_env_clbk_2_baudrate
 .u_boot_list_2_env_clbk_2_bootfile
                0x000000004a03fcdc        0x8 net/built-in.o
                0x000000004a03fcdc                _u_boot_list_2_env_clbk_2_bootfile
 .u_boot_list_2_env_clbk_2_callbacks
                0x000000004a03fce4        0x8 env/built-in.o
                0x000000004a03fce4                _u_boot_list_2_env_clbk_2_callbacks
 .u_boot_list_2_env_clbk_2_console
                0x000000004a03fcec        0x8 common/built-in.o
                0x000000004a03fcec                _u_boot_list_2_env_clbk_2_console
 .u_boot_list_2_env_clbk_2_ethaddr
                0x000000004a03fcf4        0x8 net/built-in.o
                0x000000004a03fcf4                _u_boot_list_2_env_clbk_2_ethaddr
 .u_boot_list_2_env_clbk_2_flags
                0x000000004a03fcfc        0x8 env/built-in.o
                0x000000004a03fcfc                _u_boot_list_2_env_clbk_2_flags
 .u_boot_list_2_env_clbk_2_gatewayip
                0x000000004a03fd04        0x8 net/built-in.o
                0x000000004a03fd04                _u_boot_list_2_env_clbk_2_gatewayip
 .u_boot_list_2_env_clbk_2_ipaddr
                0x000000004a03fd0c        0x8 net/built-in.o
                0x000000004a03fd0c                _u_boot_list_2_env_clbk_2_ipaddr
 .u_boot_list_2_env_clbk_2_loadaddr
                0x000000004a03fd14        0x8 common/built-in.o
                0x000000004a03fd14                _u_boot_list_2_env_clbk_2_loadaddr
 .u_boot_list_2_env_clbk_2_netmask
                0x000000004a03fd1c        0x8 net/built-in.o
                0x000000004a03fd1c                _u_boot_list_2_env_clbk_2_netmask
 .u_boot_list_2_env_clbk_2_nvlan
                0x000000004a03fd24        0x8 net/built-in.o
                0x000000004a03fd24                _u_boot_list_2_env_clbk_2_nvlan
 .u_boot_list_2_env_clbk_2_serverip
                0x000000004a03fd2c        0x8 net/built-in.o
                0x000000004a03fd2c                _u_boot_list_2_env_clbk_2_serverip
 .u_boot_list_2_env_clbk_2_vlan
                0x000000004a03fd34        0x8 net/built-in.o
                0x000000004a03fd34                _u_boot_list_2_env_clbk_2_vlan
 .u_boot_list_2_env_clbk_3
                0x000000004a03fd3c        0x0 env/built-in.o
 .u_boot_list_2_env_driver_1
                0x000000004a03fd3c        0x0 env/built-in.o
 .u_boot_list_2_env_driver_2_mmc
                0x000000004a03fd3c       0x18 env/built-in.o
                0x000000004a03fd3c                _u_boot_list_2_env_driver_2_mmc
 .u_boot_list_2_env_driver_3
                0x000000004a03fd54        0x0 env/built-in.o
 .u_boot_list_2_part_driver_1
                0x000000004a03fd54        0x0 disk/built-in.o
 .u_boot_list_2_part_driver_2_a_efi
                0x000000004a03fd54       0x18 disk/built-in.o
                0x000000004a03fd54                _u_boot_list_2_part_driver_2_a_efi
 .u_boot_list_2_part_driver_2_dos
                0x000000004a03fd6c       0x18 disk/built-in.o
                0x000000004a03fd6c                _u_boot_list_2_part_driver_2_dos
 .u_boot_list_2_part_driver_2_iso
                0x000000004a03fd84       0x18 disk/built-in.o
                0x000000004a03fd84                _u_boot_list_2_part_driver_2_iso
 .u_boot_list_2_part_driver_3
                0x000000004a03fd9c        0x0 disk/built-in.o
 .u_boot_list_2_uclass_1
                0x000000004a03fd9c        0x0 drivers/built-in.o
 .u_boot_list_2_uclass_2_display
                0x000000004a03fd9c       0x48 drivers/built-in.o
                0x000000004a03fd9c                _u_boot_list_2_uclass_2_display
 .u_boot_list_2_uclass_2_eth
                0x000000004a03fde4       0x48 net/built-in.o
                0x000000004a03fde4                _u_boot_list_2_uclass_2_eth
 .u_boot_list_2_uclass_2_gpio
                0x000000004a03fe2c       0x48 drivers/gpio/built-in.o
                0x000000004a03fe2c                _u_boot_list_2_uclass_2_gpio
 .u_boot_list_2_uclass_2_i2c
                0x000000004a03fe74       0x48 drivers/i2c/built-in.o
                0x000000004a03fe74                _u_boot_list_2_uclass_2_i2c
 .u_boot_list_2_uclass_2_i2c_generic
                0x000000004a03febc       0x48 drivers/i2c/built-in.o
                0x000000004a03febc                _u_boot_list_2_uclass_2_i2c_generic
 .u_boot_list_2_uclass_2_keyboard
                0x000000004a03ff04       0x48 drivers/built-in.o
                0x000000004a03ff04                _u_boot_list_2_uclass_2_keyboard
 .u_boot_list_2_uclass_2_root
                0x000000004a03ff4c       0x48 drivers/built-in.o
                0x000000004a03ff4c                _u_boot_list_2_uclass_2_root
 .u_boot_list_2_uclass_2_serial
                0x000000004a03ff94       0x48 drivers/serial/built-in.o
                0x000000004a03ff94                _u_boot_list_2_uclass_2_serial
 .u_boot_list_2_uclass_2_simple_bus
                0x000000004a03ffdc       0x48 drivers/built-in.o
                0x000000004a03ffdc                _u_boot_list_2_uclass_2_simple_bus
 .u_boot_list_2_uclass_2_usb
                0x000000004a040024       0x48 drivers/usb/host/built-in.o
                0x000000004a040024                _u_boot_list_2_uclass_2_usb
 .u_boot_list_2_uclass_2_usb_dev_generic
                0x000000004a04006c       0x48 drivers/usb/host/built-in.o
                0x000000004a04006c                _u_boot_list_2_uclass_2_usb_dev_generic
 .u_boot_list_2_uclass_2_usb_hub
                0x000000004a0400b4       0x48 common/built-in.o
                0x000000004a0400b4                _u_boot_list_2_uclass_2_usb_hub
 .u_boot_list_2_uclass_2_usb_mass_storage
                0x000000004a0400fc       0x48 common/built-in.o
                0x000000004a0400fc                _u_boot_list_2_uclass_2_usb_mass_storage
 .u_boot_list_2_uclass_3
                0x000000004a040144        0x0 drivers/built-in.o
 .u_boot_list_2_usb_driver_entry_1
                0x000000004a040144        0x0 drivers/usb/host/built-in.o
 .u_boot_list_2_usb_driver_entry_2_usb_generic_hub
                0x000000004a040144        0x8 common/built-in.o
                0x000000004a040144                _u_boot_list_2_usb_driver_entry_2_usb_generic_hub
 .u_boot_list_2_usb_driver_entry_2_usb_kbd
                0x000000004a04014c        0x8 common/built-in.o
                0x000000004a04014c                _u_boot_list_2_usb_driver_entry_2_usb_kbd
 .u_boot_list_2_usb_driver_entry_2_usb_mass_storage
                0x000000004a040154        0x8 common/built-in.o
                0x000000004a040154                _u_boot_list_2_usb_driver_entry_2_usb_mass_storage
 .u_boot_list_2_usb_driver_entry_3
                0x000000004a04015c        0x0 drivers/usb/host/built-in.o
                0x000000004a04015c                . = ALIGN (0x4)

.__efi_runtime_start
                0x000000004a04015c        0x0
 *(.__efi_runtime_start)
 .__efi_runtime_start
                0x000000004a04015c        0x0 arch/arm/lib/built-in.o

.efi_runtime    0x000000004a040160      0x100
 *(efi_runtime_text)
 efi_runtime_text
                0x000000004a040160       0x24 lib/built-in.o
                0x000000004a040160                efi_reset_system
                0x000000004a040162                efi_get_time
 *(efi_runtime_data)
 *fill*         0x000000004a040184        0x4 
 efi_runtime_data
                0x000000004a040188       0xd8 lib/built-in.o
                0x000000004a040188                systab
                0x000000004a040210                efi_runtime_services

.__efi_runtime_stop
                0x000000004a040260        0x0
 *(.__efi_runtime_stop)
 .__efi_runtime_stop
                0x000000004a040260        0x0 arch/arm/lib/built-in.o

.efi_runtime_rel_start
                0x000000004a040260        0x0
 *(.__efi_runtime_rel_start)
 .__efi_runtime_rel_start
                0x000000004a040260        0x0 arch/arm/lib/built-in.o

.efi_runtime_rel
                0x000000004a040260       0x90
 *(.relefi_runtime_text)
 *(.relefi_runtime_data)
 .relefi_runtime_data
                0x000000004a040260       0x90 arch/arm/cpu/armv7/start.o

.efi_runtime_rel_stop
                0x000000004a0402f0        0x0
 *(.__efi_runtime_rel_stop)
 .__efi_runtime_rel_stop
                0x000000004a0402f0        0x0 arch/arm/lib/built-in.o
                0x000000004a0402f0                . = ALIGN (0x4)

.image_copy_end
                0x000000004a0402f0        0x0
 *(.__image_copy_end)
 .__image_copy_end
                0x000000004a0402f0        0x0 arch/arm/lib/built-in.o

.rel_dyn_start  0x000000004a0402f0        0x0
 *(.__rel_dyn_start)
 .__rel_dyn_start
                0x000000004a0402f0        0x0 arch/arm/lib/built-in.o

.rel.dyn        0x000000004a0402f0     0x8f28
 *(.rel*)
 .rel.got       0x000000004a0402f0        0x0 arch/arm/cpu/armv7/start.o
 .rel.plt       0x000000004a0402f0        0x0 arch/arm/cpu/armv7/start.o
 .rel.iplt      0x000000004a0402f0        0x0 arch/arm/cpu/armv7/start.o
 .rel.text      0x000000004a0402f0       0x20 arch/arm/cpu/armv7/start.o
 .rel._secure.text
                0x000000004a040310       0xd8 arch/arm/cpu/armv7/start.o
 .rel.text.get_gicd_base_address
                0x000000004a0403e8        0x8 arch/arm/cpu/armv7/start.o
 .rel.text.armv7_init_nonsec
                0x000000004a0403f0        0x8 arch/arm/cpu/armv7/start.o
 .rel.text.psci_update_dt
                0x000000004a0403f8       0x10 arch/arm/cpu/armv7/start.o
 .rel.vectors   0x000000004a040408       0x38 arch/arm/cpu/armv7/start.o
 .rel.text.relocate_vectors
                0x000000004a040440       0x20 arch/arm/cpu/armv7/start.o
 .rel.text.boot_prep_linux
                0x000000004a040460       0x18 arch/arm/cpu/armv7/start.o
 .rel.text.armv7_boot_nonsec
                0x000000004a040478       0x18 arch/arm/cpu/armv7/start.o
 .rel.text.boot_jump_linux
                0x000000004a040490       0x28 arch/arm/cpu/armv7/start.o
 .rel.text.boot_prep_vxworks
                0x000000004a0404b8       0x10 arch/arm/cpu/armv7/start.o
 .rel.text.interrupt_init
                0x000000004a0404c8        0x8 arch/arm/cpu/armv7/start.o
 .rel.text.bad_mode
                0x000000004a0404d0        0x8 arch/arm/cpu/armv7/start.o
 .rel.text.show_regs
                0x000000004a0404d8       0x60 arch/arm/cpu/armv7/start.o
 .rel.text.do_undefined_instruction
                0x000000004a040538        0x8 arch/arm/cpu/armv7/start.o
 .rel.text.do_software_interrupt
                0x000000004a040540        0x8 arch/arm/cpu/armv7/start.o
 .rel.text.do_prefetch_abort
                0x000000004a040548        0x8 arch/arm/cpu/armv7/start.o
 .rel.text.do_data_abort
                0x000000004a040550        0x8 arch/arm/cpu/armv7/start.o
 .rel.text.do_not_used
                0x000000004a040558        0x8 arch/arm/cpu/armv7/start.o
 .rel.text.do_fiq
                0x000000004a040560        0x8 arch/arm/cpu/armv7/start.o
 .rel.text.do_irq
                0x000000004a040568        0x8 arch/arm/cpu/armv7/start.o
 .rel.text.do_reset
                0x000000004a040570        0x8 arch/arm/cpu/armv7/start.o
 .rel.text.enable_caches
                0x000000004a040578        0x0 arch/arm/cpu/armv7/start.o
 .rel.text.check_cache_range
                0x000000004a040578        0x8 arch/arm/cpu/armv7/start.o
 .rel.text.fdt_psci
                0x000000004a040580       0x80 arch/arm/cpu/armv7/start.o
 .rel.rodata    0x000000004a040600      0x100 arch/arm/cpu/armv7/start.o
 .rel.text.sunxi_get_boot_device
                0x000000004a040700       0x10 arch/arm/cpu/armv7/start.o
 .rel.text.print_cpuinfo
                0x000000004a040710        0x8 arch/arm/cpu/armv7/start.o
 .rel.text.mctl_await_completion
                0x000000004a040718        0x0 arch/arm/cpu/armv7/start.o
 .rel.text.sunxi_usb_phy_enable_squelch_detect
                0x000000004a040718        0x0 arch/arm/cpu/armv7/start.o
 .rel.text.sunxi_usb_phy_init
                0x000000004a040718        0x0 arch/arm/cpu/armv7/start.o
 .rel.text.sunxi_usb_phy_exit
                0x000000004a040718        0x0 arch/arm/cpu/armv7/start.o
 .rel.text.sunxi_usb_phy_power_on
                0x000000004a040718        0x0 arch/arm/cpu/armv7/start.o
 .rel.text.sunxi_usb_phy_power_off
                0x000000004a040718        0x0 arch/arm/cpu/armv7/start.o
 .rel.text.sunxi_usb_phy_vbus_detect
                0x000000004a040718        0x0 arch/arm/cpu/armv7/start.o
 .rel.text.sunxi_usb_phy_id_detect
                0x000000004a040718        0x0 arch/arm/cpu/armv7/start.o
 .rel.text.sunxi_usb_phy_probe
                0x000000004a040718       0x28 arch/arm/cpu/armv7/start.o
 .rel.text.sunxi_usb_phy_remove
                0x000000004a040740        0x0 arch/arm/cpu/armv7/start.o
 .rel.text.setup_environment
                0x000000004a040740       0x40 arch/arm/cpu/armv7/start.o
 .rel.text.board_init
                0x000000004a040780       0x80 arch/arm/cpu/armv7/start.o
 .rel.text.board_mmc_init
                0x000000004a040800        0x8 arch/arm/cpu/armv7/start.o
 .rel.text.get_board_serial
                0x000000004a040808        0x8 arch/arm/cpu/armv7/start.o
 .rel.text.misc_init_r
                0x000000004a040810       0x40 arch/arm/cpu/armv7/start.o
 .rel.text.do_go
                0x000000004a040850       0x10 arch/arm/cpu/armv7/start.o
 .rel.text.do_bootm
                0x000000004a040860       0x18 arch/arm/cpu/armv7/start.o
 .rel.text.do_bootd
                0x000000004a040878        0x8 arch/arm/cpu/armv7/start.o
 .rel.text.image_info
                0x000000004a040880       0x40 arch/arm/cpu/armv7/start.o
 .rel.text.do_iminfo
                0x000000004a0408c0        0x8 arch/arm/cpu/armv7/start.o
 .rel.text.bootm_maybe_autostart
                0x000000004a0408c8       0x20 arch/arm/cpu/armv7/start.o
 .rel.text.do_help
                0x000000004a0408e8       0x10 arch/arm/cpu/armv7/start.o
 .rel.text.do_version
                0x000000004a0408f8       0x10 arch/arm/cpu/armv7/start.o
 .rel.text.blk_common_cmd
                0x000000004a040908       0x70 arch/arm/cpu/armv7/start.o
 .rel.text.source
                0x000000004a040978       0x38 arch/arm/cpu/armv7/start.o
 .rel.text.do_source
                0x000000004a0409b0        0x8 arch/arm/cpu/armv7/start.o
 .rel.text.print_num
                0x000000004a0409b8        0x8 arch/arm/cpu/armv7/start.o
 .rel.text.do_bdinfo
                0x000000004a0409c0       0x68 arch/arm/cpu/armv7/start.o
 .rel.text.efi_init_obj_list
                0x000000004a040a28        0x8 arch/arm/cpu/armv7/start.o
 .rel.text.do_bootefi_exec
                0x000000004a040a30       0x48 arch/arm/cpu/armv7/start.o
 .rel.text.do_bootefi
                0x000000004a040a78       0x38 arch/arm/cpu/armv7/start.o
 .rel.text.efi_set_bootdev
                0x000000004a040ab0       0x28 arch/arm/cpu/armv7/start.o
 .rel.text.bootz_setup
                0x000000004a040ad8        0x0 arch/arm/cpu/armv7/start.o
 .rel.text.do_bootz
                0x000000004a040ad8       0x10 arch/arm/cpu/armv7/start.o
 .rel.text.do_coninfo
                0x000000004a040ae8       0x28 arch/arm/cpu/armv7/start.o
 .rel.text.do_echo
                0x000000004a040b10        0x8 arch/arm/cpu/armv7/start.o
 .rel.text.valid_elf_image
                0x000000004a040b18       0x10 arch/arm/cpu/armv7/start.o
 .rel.text.do_bootelf
                0x000000004a040b28       0x28 arch/arm/cpu/armv7/start.o
 .rel.text.do_bootvx
                0x000000004a040b50       0xe0 arch/arm/cpu/armv7/start.o
 .rel.text.do_fat_fsinfo
                0x000000004a040c30       0x10 arch/arm/cpu/armv7/start.o
 .rel.text.do_fat_fswrite
                0x000000004a040c40       0x18 arch/arm/cpu/armv7/start.o
 .rel.text.fdt_valid
                0x000000004a040c58       0x28 arch/arm/cpu/armv7/start.o
 .rel.text.is_printable_string
                0x000000004a040c80        0x8 arch/arm/cpu/armv7/start.o
 .rel.text.print_data
                0x000000004a040c88       0x58 arch/arm/cpu/armv7/start.o
 .rel.text.set_working_fdt_addr
                0x000000004a040ce0       0x10 arch/arm/cpu/armv7/start.o
 .rel.text.do_fdt
                0x000000004a040cf0      0x240 arch/arm/cpu/armv7/start.o
 .rel.text.do_load_wrapper
                0x000000004a040f30        0x8 arch/arm/cpu/armv7/start.o
 .rel.text.gpio_get_description
                0x000000004a040f38       0x18 arch/arm/cpu/armv7/start.o
 .rel.text.do_gpio
                0x000000004a040f50       0x50 arch/arm/cpu/armv7/start.o
 .rel.text.do_i2c
                0x000000004a040fa0        0x8 arch/arm/cpu/armv7/start.o
 .rel.text.show_bus
                0x000000004a040fa8       0x20 arch/arm/cpu/armv7/start.o
 .rel.text.i2c_get_cur_bus
                0x000000004a040fc8       0x18 arch/arm/cpu/armv7/start.o
 .rel.text.do_i2c_bus_speed
                0x000000004a040fe0       0x18 arch/arm/cpu/armv7/start.o
 .rel.text.do_i2c_reset
                0x000000004a040ff8        0x8 arch/arm/cpu/armv7/start.o
 .rel.text.do_i2c_probe
                0x000000004a041000       0x10 arch/arm/cpu/armv7/start.o
 .rel.text.do_i2c_show_bus
                0x000000004a041010        0x8 arch/arm/cpu/armv7/start.o
 .rel.text.do_i2c_read
                0x000000004a041018       0x10 arch/arm/cpu/armv7/start.o
 .rel.text.do_i2c_flags
                0x000000004a041028       0x18 arch/arm/cpu/armv7/start.o
 .rel.text.do_i2c_olen
                0x000000004a041040       0x18 arch/arm/cpu/armv7/start.o
 .rel.text.do_i2c_md
                0x000000004a041058       0x58 arch/arm/cpu/armv7/start.o
 .rel.text.do_i2c_mw
                0x000000004a0410b0       0x10 arch/arm/cpu/armv7/start.o
 .rel.text.do_i2c_crc
                0x000000004a0410c0       0x20 arch/arm/cpu/armv7/start.o
 .rel.text.do_edid
                0x000000004a0410e0       0x18 arch/arm/cpu/armv7/start.o
 .rel.text.do_i2c_write
                0x000000004a0410f8       0x18 arch/arm/cpu/armv7/start.o
 .rel.text.mod_i2c_mem.isra.3
                0x000000004a041110       0x60 arch/arm/cpu/armv7/start.o
 .rel.text.do_i2c_loop
                0x000000004a041170       0x18 arch/arm/cpu/armv7/start.o
 .rel.text.do_i2c_bus_num
                0x000000004a041188       0x20 arch/arm/cpu/armv7/start.o
 .rel.text.binary_test
                0x000000004a0411a8       0x10 arch/arm/cpu/armv7/start.o
 .rel.text.do_itest
                0x000000004a0411b8        0x8 arch/arm/cpu/armv7/start.o
 .rel.text.bin_data_init
                0x000000004a0411c0       0x18 arch/arm/cpu/armv7/start.o
 .rel.text.k_data_save
                0x000000004a0411d8       0x30 arch/arm/cpu/armv7/start.o
 .rel.text.k_data_restore
                0x000000004a041208       0x30 arch/arm/cpu/armv7/start.o
 .rel.text.load_serial_ymodem
                0x000000004a041238       0x20 arch/arm/cpu/armv7/start.o
 .rel.text.bin_data_char
                0x000000004a041258       0x10 arch/arm/cpu/armv7/start.o
 .rel.text.chk1.constprop.1
                0x000000004a041268        0x8 arch/arm/cpu/armv7/start.o
 .rel.text.s1_sendpacket.constprop.2
                0x000000004a041270       0x18 arch/arm/cpu/armv7/start.o
 .rel.text.load_serial
                0x000000004a041288       0x20 arch/arm/cpu/armv7/start.o
 .rel.text.do_load_serial
                0x000000004a0412a8       0x30 arch/arm/cpu/armv7/start.o
 .rel.text.do_load_serial_bin
                0x000000004a0412d8      0x108 arch/arm/cpu/armv7/start.o
 .rel.text.do_mem_mw
                0x000000004a0413e0        0x8 arch/arm/cpu/armv7/start.o
 .rel.text.do_mem_md
                0x000000004a0413e8       0x20 arch/arm/cpu/armv7/start.o
 .rel.text.do_mem_cmp
                0x000000004a041408       0x38 arch/arm/cpu/armv7/start.o
 .rel.text.do_mem_base
                0x000000004a041440       0x10 arch/arm/cpu/armv7/start.o
 .rel.text.do_mem_cp
                0x000000004a041450       0x10 arch/arm/cpu/armv7/start.o
 .rel.text.do_mem_crc
                0x000000004a041460        0x8 arch/arm/cpu/armv7/start.o
 .rel.text.do_mem_mtest
                0x000000004a041468       0x40 arch/arm/cpu/armv7/start.o
 .rel.text.mod_mem.isra.2
                0x000000004a0414a8       0x48 arch/arm/cpu/armv7/start.o
 .rel.text.board_show_dram
                0x000000004a0414f0       0x10 arch/arm/cpu/armv7/start.o
 .rel.text.do_mii
                0x000000004a041500      0x1a8 arch/arm/cpu/armv7/start.o
 .rel.text.do_mmcops
                0x000000004a0416a8       0x18 arch/arm/cpu/armv7/start.o
 .rel.text.init_mmc_device
                0x000000004a0416c0        0x8 arch/arm/cpu/armv7/start.o
 .rel.text.do_mmc_rescan
                0x000000004a0416c8        0x8 arch/arm/cpu/armv7/start.o
 .rel.text.do_mmc_hwpartition
                0x000000004a0416d0       0xc0 arch/arm/cpu/armv7/start.o
 .rel.text.do_mmc_dev
                0x000000004a041790       0x38 arch/arm/cpu/armv7/start.o
 .rel.text.do_mmc_read
                0x000000004a0417c8       0x28 arch/arm/cpu/armv7/start.o
 .rel.text.do_mmc_part
                0x000000004a0417f0       0x10 arch/arm/cpu/armv7/start.o
 .rel.text.do_mmc_erase
                0x000000004a041800       0x30 arch/arm/cpu/armv7/start.o
 .rel.text.do_mmc_write
                0x000000004a041830       0x30 arch/arm/cpu/armv7/start.o
 .rel.text.do_mmcinfo
                0x000000004a041860       0xf8 arch/arm/cpu/armv7/start.o
 .rel.text.do_mmc_setdsr
                0x000000004a041958       0x28 arch/arm/cpu/armv7/start.o
 .rel.text.netboot_common
                0x000000004a041980       0x98 arch/arm/cpu/armv7/start.o
 .rel.text.do_ping
                0x000000004a041a18       0x18 arch/arm/cpu/armv7/start.o
 .rel.text.do_part_list
                0x000000004a041a30       0x28 arch/arm/cpu/armv7/start.o
 .rel.text.do_part_start
                0x000000004a041a58       0x10 arch/arm/cpu/armv7/start.o
 .rel.text.do_part_size
                0x000000004a041a68       0x10 arch/arm/cpu/armv7/start.o
 .rel.text.do_part
                0x000000004a041a78       0x28 arch/arm/cpu/armv7/start.o
 .rel.text.do_pxe
                0x000000004a041aa0       0x10 arch/arm/cpu/armv7/start.o
 .rel.text.label_print
                0x000000004a041ab0        0x8 arch/arm/cpu/armv7/start.o
 .rel.text.do_get_tftp
                0x000000004a041ab8        0x8 arch/arm/cpu/armv7/start.o
 .rel.text.from_env
                0x000000004a041ac0        0x8 arch/arm/cpu/armv7/start.o
 .rel.text.get_string
                0x000000004a041ac8        0x8 arch/arm/cpu/armv7/start.o
 .rel.text.get_token
                0x000000004a041ad0        0x8 arch/arm/cpu/armv7/start.o
 .rel.text.parse_sliteral
                0x000000004a041ad8        0x8 arch/arm/cpu/armv7/start.o
 .rel.text.parse_integer
                0x000000004a041ae0        0x8 arch/arm/cpu/armv7/start.o
 .rel.text.do_get_any
                0x000000004a041ae8       0x10 arch/arm/cpu/armv7/start.o
 .rel.text.do_get_fat
                0x000000004a041af8       0x10 arch/arm/cpu/armv7/start.o
 .rel.text.do_get_ext2
                0x000000004a041b08       0x10 arch/arm/cpu/armv7/start.o
 .rel.text.format_mac_pxe.constprop.9
                0x000000004a041b18       0x10 arch/arm/cpu/armv7/start.o
 .rel.text.get_relfile
                0x000000004a041b28       0x38 arch/arm/cpu/armv7/start.o
 .rel.text.get_pxe_file
                0x000000004a041b60        0x8 arch/arm/cpu/armv7/start.o
 .rel.text.handle_include
                0x000000004a041b68       0x10 arch/arm/cpu/armv7/start.o
 .rel.text.parse_pxefile_top
                0x000000004a041b78      0x150 arch/arm/cpu/armv7/start.o
 .rel.text.get_pxelinux_path
                0x000000004a041cc8       0x18 arch/arm/cpu/armv7/start.o
 .rel.text.do_pxe_get
                0x000000004a041ce0       0x48 arch/arm/cpu/armv7/start.o
 .rel.text.label_boot
                0x000000004a041d28      0x108 arch/arm/cpu/armv7/start.o
 .rel.text.handle_pxe_menu
                0x000000004a041e30       0x18 arch/arm/cpu/armv7/start.o
 .rel.text.do_pxe_boot
                0x000000004a041e48       0x38 arch/arm/cpu/armv7/start.o
 .rel.text.do_sysboot
                0x000000004a041e80       0x80 arch/arm/cpu/armv7/start.o
 .rel.text.substitute
                0x000000004a041f00        0x8 arch/arm/cpu/armv7/start.o
 .rel.text.regex_sub
                0x000000004a041f08       0x38 arch/arm/cpu/armv7/start.o
 .rel.text.do_setexpr
                0x000000004a041f40       0x18 arch/arm/cpu/armv7/start.o
 .rel.text.do_test
                0x000000004a041f58        0x8 arch/arm/cpu/armv7/start.o
 .rel.text.usb_get_class_desc
                0x000000004a041f60       0x50 arch/arm/cpu/armv7/start.o
 .rel.text.usb_display_class_sub
                0x000000004a041fb0       0x98 arch/arm/cpu/armv7/start.o
 .rel.text.usb_display_desc
                0x000000004a042048       0x38 arch/arm/cpu/armv7/start.o
 .rel.text.usb_show_tree_graph
                0x000000004a042080       0x48 arch/arm/cpu/armv7/start.o
 .rel.text.usb_display_string
                0x000000004a0420c8        0x8 arch/arm/cpu/armv7/start.o
 .rel.text.usb_display_config
                0x000000004a0420d0       0xa8 arch/arm/cpu/armv7/start.o
 .rel.text.do_usbboot
                0x000000004a042178        0x8 arch/arm/cpu/armv7/start.o
 .rel.text.do_usb_start
                0x000000004a042180        0x8 arch/arm/cpu/armv7/start.o
 .rel.text.usb_show_tree
                0x000000004a042188        0x8 arch/arm/cpu/armv7/start.o
 .rel.text.do_usb
                0x000000004a042190       0xf0 arch/arm/cpu/armv7/start.o
 .rel.text.common_diskboot
                0x000000004a042280       0x28 arch/arm/cpu/armv7/start.o
 .rel.text.do_imgextract
                0x000000004a0422a8       0x90 arch/arm/cpu/armv7/start.o
 .rel.text.extract_val
                0x000000004a042338       0x10 arch/arm/cpu/armv7/start.o
 .rel.text.extract_env
                0x000000004a042348        0x8 arch/arm/cpu/armv7/start.o
 .rel.text.set_gpt_info.isra.1.constprop.2
                0x000000004a042350       0x80 arch/arm/cpu/armv7/start.o
 .rel.text.do_gpt
                0x000000004a0423d0       0x78 arch/arm/cpu/armv7/start.o
 .rel.text.do_env_delete
                0x000000004a042448       0x10 arch/arm/cpu/armv7/start.o
 .rel.text.do_env_exists
                0x000000004a042458        0x8 arch/arm/cpu/armv7/start.o
 .rel.text.do_env_save
                0x000000004a042460        0x8 arch/arm/cpu/armv7/start.o
 .rel.text.do_env
                0x000000004a042468        0x8 arch/arm/cpu/armv7/start.o
 .rel.text.env_print
                0x000000004a042470       0x18 arch/arm/cpu/armv7/start.o
 .rel.text.do_env_print
                0x000000004a042488       0x10 arch/arm/cpu/armv7/start.o
 .rel.text.do_env_import
                0x000000004a042498       0x48 arch/arm/cpu/armv7/start.o
 .rel.text.do_env_default
                0x000000004a0424e0        0x8 arch/arm/cpu/armv7/start.o
 .rel.text._do_env_set.isra.1
                0x000000004a0424e8       0x30 arch/arm/cpu/armv7/start.o
 .rel.text.get_env_id
                0x000000004a042518        0x8 arch/arm/cpu/armv7/start.o
 .rel.text.env_set
                0x000000004a042520        0x8 arch/arm/cpu/armv7/start.o
 .rel.text.env_set_hex
                0x000000004a042528        0x8 arch/arm/cpu/armv7/start.o
 .rel.text.do_env_export
                0x000000004a042530       0x30 arch/arm/cpu/armv7/start.o
 .rel.text.env_get_f
                0x000000004a042560        0x8 arch/arm/cpu/armv7/start.o
 .rel.text.env_get
                0x000000004a042568        0x8 arch/arm/cpu/armv7/start.o
 .rel.text.do_env_edit.part.3
                0x000000004a042570       0x18 arch/arm/cpu/armv7/start.o
 .rel.rodata.op_table
                0x000000004a042588       0x68 arch/arm/cpu/armv7/start.o
 .rel.rodata.reg_4_desc_tbl
                0x000000004a0425f0       0x60 arch/arm/cpu/armv7/start.o
 .rel.rodata.desc_and_len_tbl
                0x000000004a042650       0x30 arch/arm/cpu/armv7/start.o
 .rel.rodata.reg_5_desc_tbl
                0x000000004a042680       0x60 arch/arm/cpu/armv7/start.o
 .rel.rodata.reg_2_desc_tbl
                0x000000004a0426e0        0x8 arch/arm/cpu/armv7/start.o
 .rel.rodata.reg_0_5_desc_tbl
                0x000000004a0426e8       0x30 arch/arm/cpu/armv7/start.o
 .rel.rodata.reg_3_desc_tbl
                0x000000004a042718       0x18 arch/arm/cpu/armv7/start.o
 .rel.rodata.reg_0_desc_tbl
                0x000000004a042730       0x50 arch/arm/cpu/armv7/start.o
 .rel.rodata.reg_1_desc_tbl
                0x000000004a042780       0x80 arch/arm/cpu/armv7/start.o
 .rel.rodata.keywords
                0x000000004a042800       0x90 arch/arm/cpu/armv7/start.o
 .rel.rodata.op_adv
                0x000000004a042890       0x80 arch/arm/cpu/armv7/start.o
 .rel.rodata.CSWTCH.30
                0x000000004a042910       0x28 arch/arm/cpu/armv7/start.o
 .rel.u_boot_list_2_cmd_2_go
                0x000000004a042938       0x20 arch/arm/cpu/armv7/start.o
 .rel.u_boot_list_2_cmd_2_reset
                0x000000004a042958       0x20 arch/arm/cpu/armv7/start.o
 .rel.u_boot_list_2_cmd_2_iminfo
                0x000000004a042978       0x20 arch/arm/cpu/armv7/start.o
 .rel.u_boot_list_2_cmd_2_boot
                0x000000004a042998       0x20 arch/arm/cpu/armv7/start.o
 .rel.u_boot_list_2_cmd_2_bootd
                0x000000004a0429b8       0x20 arch/arm/cpu/armv7/start.o
 .rel.u_boot_list_2_cmd_2_bootm
                0x000000004a0429d8       0x20 arch/arm/cpu/armv7/start.o
 .rel.data.cmd_bootm_sub
                0x000000004a0429f8       0xd8 arch/arm/cpu/armv7/start.o
 .rel.u_boot_list_2_cmd_2_question_mark
                0x000000004a042ad0       0x20 arch/arm/cpu/armv7/start.o
 .rel.u_boot_list_2_cmd_2_help
                0x000000004a042af0       0x20 arch/arm/cpu/armv7/start.o
 .rel.u_boot_list_2_cmd_2_version
                0x000000004a042b10       0x20 arch/arm/cpu/armv7/start.o
 .rel.u_boot_list_2_cmd_2_source
                0x000000004a042b30       0x20 arch/arm/cpu/armv7/start.o
 .rel.u_boot_list_2_cmd_2_bdinfo
                0x000000004a042b50       0x20 arch/arm/cpu/armv7/start.o
 .rel.u_boot_list_2_cmd_2_bootefi
                0x000000004a042b70       0x20 arch/arm/cpu/armv7/start.o
 .rel.u_boot_list_2_cmd_2_bootz
                0x000000004a042b90       0x20 arch/arm/cpu/armv7/start.o
 .rel.u_boot_list_2_cmd_2_coninfo
                0x000000004a042bb0       0x20 arch/arm/cpu/armv7/start.o
 .rel.u_boot_list_2_cmd_2_echo
                0x000000004a042bd0       0x20 arch/arm/cpu/armv7/start.o
 .rel.u_boot_list_2_cmd_2_bootelf
                0x000000004a042bf0       0x20 arch/arm/cpu/armv7/start.o
 .rel.u_boot_list_2_cmd_2_bootvx
                0x000000004a042c10       0x20 arch/arm/cpu/armv7/start.o
 .rel.u_boot_list_2_cmd_2_exit
                0x000000004a042c30       0x20 arch/arm/cpu/armv7/start.o
 .rel.u_boot_list_2_cmd_2_ext4load
                0x000000004a042c50       0x20 arch/arm/cpu/armv7/start.o
 .rel.u_boot_list_2_cmd_2_ext4ls
                0x000000004a042c70       0x20 arch/arm/cpu/armv7/start.o
 .rel.u_boot_list_2_cmd_2_ext4size
                0x000000004a042c90       0x20 arch/arm/cpu/armv7/start.o
 .rel.u_boot_list_2_cmd_2_ext2ls
                0x000000004a042cb0       0x20 arch/arm/cpu/armv7/start.o
 .rel.u_boot_list_2_cmd_2_ext2load
                0x000000004a042cd0       0x20 arch/arm/cpu/armv7/start.o
 .rel.u_boot_list_2_cmd_2_fatinfo
                0x000000004a042cf0       0x20 arch/arm/cpu/armv7/start.o
 .rel.u_boot_list_2_cmd_2_fatwrite
                0x000000004a042d10       0x20 arch/arm/cpu/armv7/start.o
 .rel.u_boot_list_2_cmd_2_fatload
                0x000000004a042d30       0x20 arch/arm/cpu/armv7/start.o
 .rel.u_boot_list_2_cmd_2_fatls
                0x000000004a042d50       0x20 arch/arm/cpu/armv7/start.o
 .rel.u_boot_list_2_cmd_2_fatsize
                0x000000004a042d70       0x20 arch/arm/cpu/armv7/start.o
 .rel.u_boot_list_2_cmd_2_fdt
                0x000000004a042d90       0x20 arch/arm/cpu/armv7/start.o
 .rel.u_boot_list_2_cmd_2_save
                0x000000004a042db0       0x20 arch/arm/cpu/armv7/start.o
 .rel.u_boot_list_2_cmd_2_size
                0x000000004a042dd0       0x20 arch/arm/cpu/armv7/start.o
 .rel.u_boot_list_2_cmd_2_fstype
                0x000000004a042df0       0x20 arch/arm/cpu/armv7/start.o
 .rel.u_boot_list_2_cmd_2_ls
                0x000000004a042e10       0x20 arch/arm/cpu/armv7/start.o
 .rel.u_boot_list_2_cmd_2_load
                0x000000004a042e30       0x20 arch/arm/cpu/armv7/start.o
 .rel.u_boot_list_2_cmd_2_gpio
                0x000000004a042e50       0x20 arch/arm/cpu/armv7/start.o
 .rel.data.cmd_i2c_sub
                0x000000004a042e70      0x200 arch/arm/cpu/armv7/start.o
 .rel.u_boot_list_2_cmd_2_i2c
                0x000000004a043070       0x20 arch/arm/cpu/armv7/start.o
 .rel.u_boot_list_2_cmd_2_itest
                0x000000004a043090       0x20 arch/arm/cpu/armv7/start.o
 .rel.u_boot_list_2_cmd_2_loadb
                0x000000004a0430b0       0x20 arch/arm/cpu/armv7/start.o
 .rel.u_boot_list_2_cmd_2_loadx
                0x000000004a0430d0       0x20 arch/arm/cpu/armv7/start.o
 .rel.u_boot_list_2_cmd_2_loady
                0x000000004a0430f0       0x20 arch/arm/cpu/armv7/start.o
 .rel.u_boot_list_2_cmd_2_loads
                0x000000004a043110       0x20 arch/arm/cpu/armv7/start.o
 .rel.u_boot_list_2_cmd_2_base
                0x000000004a043130       0x20 arch/arm/cpu/armv7/start.o
 .rel.u_boot_list_2_cmd_2_cmp
                0x000000004a043150       0x20 arch/arm/cpu/armv7/start.o
 .rel.u_boot_list_2_cmd_2_nm
                0x000000004a043170       0x20 arch/arm/cpu/armv7/start.o
 .rel.u_boot_list_2_cmd_2_loop
                0x000000004a043190       0x20 arch/arm/cpu/armv7/start.o
 .rel.u_boot_list_2_cmd_2_mtest
                0x000000004a0431b0       0x20 arch/arm/cpu/armv7/start.o
 .rel.u_boot_list_2_cmd_2_cp
                0x000000004a0431d0       0x20 arch/arm/cpu/armv7/start.o
 .rel.u_boot_list_2_cmd_2_meminfo
                0x000000004a0431f0       0x20 arch/arm/cpu/armv7/start.o
 .rel.u_boot_list_2_cmd_2_mm
                0x000000004a043210       0x20 arch/arm/cpu/armv7/start.o
 .rel.u_boot_list_2_cmd_2_crc32
                0x000000004a043230       0x20 arch/arm/cpu/armv7/start.o
 .rel.u_boot_list_2_cmd_2_md
                0x000000004a043250       0x20 arch/arm/cpu/armv7/start.o
 .rel.u_boot_list_2_cmd_2_mw
                0x000000004a043270       0x20 arch/arm/cpu/armv7/start.o
 .rel.u_boot_list_2_cmd_2_mii
                0x000000004a043290       0x20 arch/arm/cpu/armv7/start.o
 .rel.u_boot_list_2_cmd_2_sleep
                0x000000004a0432b0       0x20 arch/arm/cpu/armv7/start.o
 .rel.u_boot_list_2_cmd_2_mmcinfo
                0x000000004a0432d0       0x20 arch/arm/cpu/armv7/start.o
 .rel.data.cmd_mmc
                0x000000004a0432f0      0x140 arch/arm/cpu/armv7/start.o
 .rel.u_boot_list_2_cmd_2_mmc
                0x000000004a043430       0x20 arch/arm/cpu/armv7/start.o
 .rel.u_boot_list_2_cmd_2_ping
                0x000000004a043450       0x20 arch/arm/cpu/armv7/start.o
 .rel.u_boot_list_2_cmd_2_dhcp
                0x000000004a043470       0x20 arch/arm/cpu/armv7/start.o
 .rel.u_boot_list_2_cmd_2_bootp
                0x000000004a043490       0x20 arch/arm/cpu/armv7/start.o
 .rel.u_boot_list_2_cmd_2_tftpboot
                0x000000004a0434b0       0x20 arch/arm/cpu/armv7/start.o
 .rel.u_boot_list_2_cmd_2_nfs
                0x000000004a0434d0       0x20 arch/arm/cpu/armv7/start.o
 .rel.u_boot_list_2_cmd_2_part
                0x000000004a0434f0       0x20 arch/arm/cpu/armv7/start.o
 .rel.u_boot_list_2_cmd_2_pxe
                0x000000004a043510       0x20 arch/arm/cpu/armv7/start.o
 .rel.data.cmd_pxe_sub
                0x000000004a043530       0x40 arch/arm/cpu/armv7/start.o
 .rel.u_boot_list_2_cmd_2_sysboot
                0x000000004a043570       0x20 arch/arm/cpu/armv7/start.o
 .rel.data.pxe_default_paths
                0x000000004a043590       0x18 arch/arm/cpu/armv7/start.o
 .rel.u_boot_list_2_cmd_2_setexpr
                0x000000004a0435a8       0x20 arch/arm/cpu/armv7/start.o
 .rel.u_boot_list_2_cmd_2_test
                0x000000004a0435c8       0x20 arch/arm/cpu/armv7/start.o
 .rel.u_boot_list_2_cmd_2_true
                0x000000004a0435e8       0x18 arch/arm/cpu/armv7/start.o
 .rel.u_boot_list_2_cmd_2_false
                0x000000004a043600       0x18 arch/arm/cpu/armv7/start.o
 .rel.u_boot_list_2_cmd_2_usb
                0x000000004a043618       0x20 arch/arm/cpu/armv7/start.o
 .rel.u_boot_list_2_cmd_2_usbboot
                0x000000004a043638       0x20 arch/arm/cpu/armv7/start.o
 .rel.u_boot_list_2_cmd_2_imxtract
                0x000000004a043658       0x20 arch/arm/cpu/armv7/start.o
 .rel.u_boot_list_2_cmd_2_gpt
                0x000000004a043678       0x20 arch/arm/cpu/armv7/start.o
 .rel.u_boot_list_2_cmd_2_setenv
                0x000000004a043698       0x28 arch/arm/cpu/armv7/start.o
 .rel.u_boot_list_2_cmd_2_env
                0x000000004a0436c0       0x20 arch/arm/cpu/armv7/start.o
 .rel.u_boot_list_2_cmd_2_saveenv
                0x000000004a0436e0       0x20 arch/arm/cpu/armv7/start.o
 .rel.data.cmd_env_sub
                0x000000004a043700      0x140 arch/arm/cpu/armv7/start.o
 .rel.u_boot_list_2_cmd_2_printenv
                0x000000004a043840       0x28 arch/arm/cpu/armv7/start.o
 .rel.u_boot_list_2_cmd_2_editenv
                0x000000004a043868       0x28 arch/arm/cpu/armv7/start.o
 .rel.u_boot_list_2_cmd_2_run
                0x000000004a043890       0x28 arch/arm/cpu/armv7/start.o
 .rel.text.main_loop
                0x000000004a0438b8       0x10 arch/arm/cpu/armv7/start.o
 .rel.text.jumptable_init
                0x000000004a0438c8       0xc0 arch/arm/cpu/armv7/start.o
 .rel.text.hash_lookup_algo
                0x000000004a043988        0x0 arch/arm/cpu/armv7/start.o
 .rel.text.hash_progressive_lookup_algo
                0x000000004a043988        0x0 arch/arm/cpu/armv7/start.o
 .rel.text.hash_command
                0x000000004a043988        0x8 arch/arm/cpu/armv7/start.o
 .rel.text.mapset
                0x000000004a043990        0x8 arch/arm/cpu/armv7/start.o
 .rel.text.syntax_err
                0x000000004a043998        0x8 arch/arm/cpu/armv7/start.o
 .rel.text.xmalloc
                0x000000004a0439a0        0x8 arch/arm/cpu/armv7/start.o
 .rel.text.xrealloc
                0x000000004a0439a8        0x8 arch/arm/cpu/armv7/start.o
 .rel.text.done_word
                0x000000004a0439b0        0x8 arch/arm/cpu/armv7/start.o
 .rel.text.do_showvar
                0x000000004a0439b8       0x20 arch/arm/cpu/armv7/start.o
 .rel.text.is_assignment
                0x000000004a0439d8        0x8 arch/arm/cpu/armv7/start.o
 .rel.text.file_get
                0x000000004a0439e0       0x30 arch/arm/cpu/armv7/start.o
 .rel.text.b_addqchr
                0x000000004a043a10        0x8 arch/arm/cpu/armv7/start.o
 .rel.text.get_local_var
                0x000000004a043a18       0x20 arch/arm/cpu/armv7/start.o
 .rel.text.set_local_var
                0x000000004a043a38       0x20 arch/arm/cpu/armv7/start.o
 .rel.text.insert_var_value_sub
                0x000000004a043a58        0x8 arch/arm/cpu/armv7/start.o
 .rel.text.unset_local_var
                0x000000004a043a60        0x0 arch/arm/cpu/armv7/start.o
 .rel.text.parse_string_outer
                0x000000004a043a60       0x18 arch/arm/cpu/armv7/start.o
 .rel.text.run_list_real
                0x000000004a043a78       0x48 arch/arm/cpu/armv7/start.o
 .rel.text.parse_stream_outer
                0x000000004a043ac0       0x68 arch/arm/cpu/armv7/start.o
 .rel.text.parse_file_outer
                0x000000004a043b28       0x10 arch/arm/cpu/armv7/start.o
 .rel.text.u_boot_hush_start
                0x000000004a043b38       0x18 arch/arm/cpu/armv7/start.o
 .rel.text.bootdelay_process
                0x000000004a043b50       0x38 arch/arm/cpu/armv7/start.o
 .rel.text.autoboot_command
                0x000000004a043b88       0x20 arch/arm/cpu/armv7/start.o
 .rel.text.setup_mon_len
                0x000000004a043ba8       0x10 arch/arm/cpu/armv7/start.o
 .rel.text.announce_dram_init
                0x000000004a043bb8        0x8 arch/arm/cpu/armv7/start.o
 .rel.text.init_baud_rate
                0x000000004a043bc0        0x8 arch/arm/cpu/armv7/start.o
 .rel.text.show_dram_config
                0x000000004a043bc8        0x8 arch/arm/cpu/armv7/start.o
 .rel.text.board_init_f
                0x000000004a043bd0        0x8 arch/arm/cpu/armv7/start.o
 .rel.text.init_env_boot_mmc
                0x000000004a043bd8       0x38 arch/arm/cpu/armv7/start.o
 .rel.text.turn_off_tft_bl
                0x000000004a043c10       0x10 arch/arm/cpu/armv7/start.o
 .rel.text.initr_net
                0x000000004a043c20        0x8 arch/arm/cpu/armv7/start.o
 .rel.text.initr_ethaddr
                0x000000004a043c28        0x8 arch/arm/cpu/armv7/start.o
 .rel.text.initr_env
                0x000000004a043c30       0x20 arch/arm/cpu/armv7/start.o
 .rel.text.initr_mmc
                0x000000004a043c50        0x8 arch/arm/cpu/armv7/start.o
 .rel.text.initr_reloc_global_data
                0x000000004a043c58       0x18 arch/arm/cpu/armv7/start.o
 .rel.text.nanopi_read_gpio
                0x000000004a043c70        0x0 arch/arm/cpu/armv7/start.o
 .rel.text.nanopi_read_extra_gpio
                0x000000004a043c70        0x0 arch/arm/cpu/armv7/start.o
 .rel.text.nanopi_get_board
                0x000000004a043c70       0x10 arch/arm/cpu/armv7/start.o
 .rel.text.setup_env_boardtype
                0x000000004a043c80       0x28 arch/arm/cpu/armv7/start.o
 .rel.text.board_init_r
                0x000000004a043ca8        0x8 arch/arm/cpu/armv7/start.o
 .rel.text.show_board_info
                0x000000004a043cb0       0x10 arch/arm/cpu/armv7/start.o
 .rel.text.bootm_find_images
                0x000000004a043cc0       0x18 arch/arm/cpu/armv7/start.o
 .rel.text.bootm_decomp_image
                0x000000004a043cd8       0x48 arch/arm/cpu/armv7/start.o
 .rel.text.do_bootm_states
                0x000000004a043d20       0xb8 arch/arm/cpu/armv7/start.o
 .rel.text.do_bootm_rtems
                0x000000004a043dd8        0x8 arch/arm/cpu/armv7/start.o
 .rel.text.do_bootm_plan9
                0x000000004a043de0       0x18 arch/arm/cpu/armv7/start.o
 .rel.text.do_bootm_standalone
                0x000000004a043df8       0x18 arch/arm/cpu/armv7/start.o
 .rel.text.do_bootm_qnxelf
                0x000000004a043e10        0x8 arch/arm/cpu/armv7/start.o
 .rel.text.do_bootm_netbsd
                0x000000004a043e18       0x18 arch/arm/cpu/armv7/start.o
 .rel.text.do_bootvx_fdt
                0x000000004a043e30       0x38 arch/arm/cpu/armv7/start.o
 .rel.text.bootm_os_get_boot_func
                0x000000004a043e68        0x8 arch/arm/cpu/armv7/start.o
 .rel.text.fdt_support_default_count_cells
                0x000000004a043e70        0x8 arch/arm/cpu/armv7/start.o
 .rel.text.fdt_find_or_add_subnode
                0x000000004a043e78       0x10 arch/arm/cpu/armv7/start.o
 .rel.text.fdt_root
                0x000000004a043e88       0x20 arch/arm/cpu/armv7/start.o
 .rel.text.fdt_initrd
                0x000000004a043ea8       0x30 arch/arm/cpu/armv7/start.o
 .rel.text.fdt_chosen
                0x000000004a043ed8       0x30 arch/arm/cpu/armv7/start.o
 .rel.text.do_fixup_by_path
                0x000000004a043f08        0x8 arch/arm/cpu/armv7/start.o
 .rel.text.fdt_fixup_memory_banks
                0x000000004a043f10       0x38 arch/arm/cpu/armv7/start.o
 .rel.text.fdt_fixup_ethernet
                0x000000004a043f48       0x30 arch/arm/cpu/armv7/start.o
 .rel.text.fdt_del_node_and_alias
                0x000000004a043f78        0x0 arch/arm/cpu/armv7/start.o
 .rel.text.fdt_translate_address
                0x000000004a043f78       0x20 arch/arm/cpu/armv7/start.o
 .rel.text.fdt_node_offset_by_compat_reg
                0x000000004a043f98        0x0 arch/arm/cpu/armv7/start.o
 .rel.text.fdt_set_phandle
                0x000000004a043f98        0x0 arch/arm/cpu/armv7/start.o
 .rel.text.fdt_create_phandle
                0x000000004a043f98        0x0 arch/arm/cpu/armv7/start.o
 .rel.text.fdt_set_node_status
                0x000000004a043f98        0x0 arch/arm/cpu/armv7/start.o
 .rel.text.fdt_verify_alias_address
                0x000000004a043f98        0x0 arch/arm/cpu/armv7/start.o
 .rel.text.fdt_get_base_address
                0x000000004a043f98        0x0 arch/arm/cpu/armv7/start.o
 .rel.text.fdt_read_range
                0x000000004a043f98        0x0 arch/arm/cpu/armv7/start.o
 .rel.text.fdt_setup_simplefb_node
                0x000000004a043f98        0x0 arch/arm/cpu/armv7/start.o
 .rel.text.fdt_fixup_display
                0x000000004a043f98        0x0 arch/arm/cpu/armv7/start.o
 .rel.text.miiphy_get_dev_by_name
                0x000000004a043f98       0x10 arch/arm/cpu/armv7/start.o
 .rel.text.miiphy_init
                0x000000004a043fa8       0x10 arch/arm/cpu/armv7/start.o
 .rel.text.mdio_register
                0x000000004a043fb8        0x0 arch/arm/cpu/armv7/start.o
 .rel.text.mdio_register_seq
                0x000000004a043fb8        0x0 arch/arm/cpu/armv7/start.o
 .rel.text.mdio_unregister
                0x000000004a043fb8        0x0 arch/arm/cpu/armv7/start.o
 .rel.text.mdio_list_devices
                0x000000004a043fb8        0x0 arch/arm/cpu/armv7/start.o
 .rel.text.miiphy_set_current_dev
                0x000000004a043fb8       0x10 arch/arm/cpu/armv7/start.o
 .rel.text.miiphy_get_active_dev
                0x000000004a043fc8        0x8 arch/arm/cpu/armv7/start.o
 .rel.text.mdio_get_current_dev
                0x000000004a043fd0        0x0 arch/arm/cpu/armv7/start.o
 .rel.text.mdio_phydev_for_ethname
                0x000000004a043fd0        0x0 arch/arm/cpu/armv7/start.o
 .rel.text.miiphy_get_current_dev
                0x000000004a043fd0        0x8 arch/arm/cpu/armv7/start.o
 .rel.text.miiphy_listdev
                0x000000004a043fd8       0x30 arch/arm/cpu/armv7/start.o
 .rel.text.miiphy_reset
                0x000000004a044008        0x0 arch/arm/cpu/armv7/start.o
 .rel.text.miiphy_speed
                0x000000004a044008       0x20 arch/arm/cpu/armv7/start.o
 .rel.text.miiphy_duplex
                0x000000004a044028       0x20 arch/arm/cpu/armv7/start.o
 .rel.text.get_descriptor_len
                0x000000004a044048       0x10 arch/arm/cpu/armv7/start.o
 .rel.text.usb_setup_descriptor
                0x000000004a044058       0x10 arch/arm/cpu/armv7/start.o
 .rel.text.usb_string_sub
                0x000000004a044068        0x8 arch/arm/cpu/armv7/start.o
 .rel.text.usb_get_configuration_len
                0x000000004a044070       0x10 arch/arm/cpu/armv7/start.o
 .rel.text.usb_set_interface
                0x000000004a044080        0x8 arch/arm/cpu/armv7/start.o
 .rel.text.usb_select_config
                0x000000004a044088       0x70 arch/arm/cpu/armv7/start.o
 .rel.text.usb_setup_device
                0x000000004a0440f8       0x10 arch/arm/cpu/armv7/start.o
 .rel.text.usb_find_usb2_hub_address_port
                0x000000004a044108        0x0 arch/arm/cpu/armv7/start.o
 .rel.text.usb_hub_port_connect_change
                0x000000004a044108        0x8 arch/arm/cpu/armv7/start.o
 .rel.text.usb_hub_configure
                0x000000004a044110       0x28 arch/arm/cpu/armv7/start.o
 .rel.text.usb_stor_BBB_transport
                0x000000004a044138       0x10 arch/arm/cpu/armv7/start.o
 .rel.text.usb_stor_CB_comdat
                0x000000004a044148        0x8 arch/arm/cpu/armv7/start.o
 .rel.text.usb_stor_CBI_get_status.isra.2
                0x000000004a044150        0x8 arch/arm/cpu/armv7/start.o
 .rel.text.usb_stor_CB_transport
                0x000000004a044158       0x10 arch/arm/cpu/armv7/start.o
 .rel.text.usb_request_sense.constprop.11
                0x000000004a044168        0x8 arch/arm/cpu/armv7/start.o
 .rel.text.usb_stor_read
                0x000000004a044170       0x10 arch/arm/cpu/armv7/start.o
 .rel.text.usb_stor_write
                0x000000004a044180       0x10 arch/arm/cpu/armv7/start.o
 .rel.text.usb_stor_info
                0x000000004a044190       0x20 arch/arm/cpu/armv7/start.o
 .rel.text.usb_stor_reset
                0x000000004a0441b0        0x8 arch/arm/cpu/armv7/start.o
 .rel.text.usb_stor_scan
                0x000000004a0441b8       0x18 arch/arm/cpu/armv7/start.o
 .rel.text.usb_storage_probe
                0x000000004a0441d0       0x38 arch/arm/cpu/armv7/start.o
 .rel.text.usb_stor_get_info
                0x000000004a044208       0x20 arch/arm/cpu/armv7/start.o
 .rel.text.usb_mass_storage_probe
                0x000000004a044228       0x30 arch/arm/cpu/armv7/start.o
 .rel.text.iomux_printdevs
                0x000000004a044258        0x0 arch/arm/cpu/armv7/start.o
 .rel.text.iomux_doenv
                0x000000004a044258       0x10 arch/arm/cpu/armv7/start.o
 .rel.text.snip
                0x000000004a044268        0x8 arch/arm/cpu/armv7/start.o
 .rel.text.edid_check_info
                0x000000004a044270        0x8 arch/arm/cpu/armv7/start.o
 .rel.text.edid_print_info
                0x000000004a044278      0x1b0 arch/arm/cpu/armv7/start.o
 .rel.text.menu_get_choice
                0x000000004a044428       0x18 arch/arm/cpu/armv7/start.o
 .rel.text.usb_kbd_remove
                0x000000004a044440       0x20 arch/arm/cpu/armv7/start.o
 .rel.text.usb_kbd_translate.part.0
                0x000000004a044460       0x20 arch/arm/cpu/armv7/start.o
 .rel.text.usb_kbd_probe
                0x000000004a044480       0x38 arch/arm/cpu/armv7/start.o
 .rel.text.usb_kbd_getc
                0x000000004a0444b8        0x8 arch/arm/cpu/armv7/start.o
 .rel.text.usb_kbd_testc
                0x000000004a0444c0       0x18 arch/arm/cpu/armv7/start.o
 .rel.text.delete_char.part.0
                0x000000004a0444d8       0x10 arch/arm/cpu/armv7/start.o
 .rel.text.cread_add_char
                0x000000004a0444e8        0x8 arch/arm/cpu/armv7/start.o
 .rel.text.cli_readline_into_buffer
                0x000000004a0444f0       0xb0 arch/arm/cpu/armv7/start.o
 .rel.text.cli_readline
                0x000000004a0445a0        0x8 arch/arm/cpu/armv7/start.o
 .rel.text.cli_simple_parse_line
                0x000000004a0445a8        0x0 arch/arm/cpu/armv7/start.o
 .rel.text.cli_simple_run_command
                0x000000004a0445a8        0x0 arch/arm/cpu/armv7/start.o
 .rel.text.cli_simple_loop
                0x000000004a0445a8        0x0 arch/arm/cpu/armv7/start.o
 .rel.text.console_tstc
                0x000000004a0445a8       0x20 arch/arm/cpu/armv7/start.o
 .rel.text.console_putc
                0x000000004a0445c8       0x10 arch/arm/cpu/armv7/start.o
 .rel.text.console_puts
                0x000000004a0445d8       0x10 arch/arm/cpu/armv7/start.o
 .rel.text.on_console
                0x000000004a0445e8       0x20 arch/arm/cpu/armv7/start.o
 .rel.text.console_getc.isra.2
                0x000000004a044608        0x8 arch/arm/cpu/armv7/start.o
 .rel.text.getc
                0x000000004a044610        0x8 arch/arm/cpu/armv7/start.o
 .rel.text.print_pre_console_buffer
                0x000000004a044618       0x18 arch/arm/cpu/armv7/start.o
 .rel.text.fgetc
                0x000000004a044630        0x0 arch/arm/cpu/armv7/start.o
 .rel.text.ctrlc
                0x000000004a044630       0x10 arch/arm/cpu/armv7/start.o
 .rel.text.confirm_yesno
                0x000000004a044640        0x0 arch/arm/cpu/armv7/start.o
 .rel.text.disable_ctrlc
                0x000000004a044640        0x8 arch/arm/cpu/armv7/start.o
 .rel.text.had_ctrlc
                0x000000004a044648        0x8 arch/arm/cpu/armv7/start.o
 .rel.text.clear_ctrlc
                0x000000004a044650        0x8 arch/arm/cpu/armv7/start.o
 .rel.text.console_assign
                0x000000004a044658       0x30 arch/arm/cpu/armv7/start.o
 .rel.text.stdio_print_current_devices
                0x000000004a044688       0x40 arch/arm/cpu/armv7/start.o
 .rel.text.console_init_r
                0x000000004a0446c8       0x48 arch/arm/cpu/armv7/start.o
 .rel.text.sbrk
                0x000000004a044710       0x18 arch/arm/cpu/armv7/start.o
 .rel.text.mem_malloc_init
                0x000000004a044728       0x18 arch/arm/cpu/armv7/start.o
 .rel.text.malloc_trim
                0x000000004a044740       0x18 arch/arm/cpu/armv7/start.o
 .rel.text.free
                0x000000004a044758       0x18 arch/arm/cpu/armv7/start.o
 .rel.text.malloc
                0x000000004a044770       0x48 arch/arm/cpu/armv7/start.o
 .rel.text.realloc
                0x000000004a0447b8       0x10 arch/arm/cpu/armv7/start.o
 .rel.text.mallopt
                0x000000004a0447c8        0x0 arch/arm/cpu/armv7/start.o
 .rel.text.on_loadaddr
                0x000000004a0447c8        0x8 arch/arm/cpu/armv7/start.o
 .rel.text.env_get_bootm_low
                0x000000004a0447d0        0x8 arch/arm/cpu/armv7/start.o
 .rel.text.env_get_bootm_size
                0x000000004a0447d8       0x10 arch/arm/cpu/armv7/start.o
 .rel.text.env_get_bootm_mapsize
                0x000000004a0447e8        0x8 arch/arm/cpu/armv7/start.o
 .rel.text.genimg_print_size
                0x000000004a0447f0       0x10 arch/arm/cpu/armv7/start.o
 .rel.text.genimg_get_short_name
                0x000000004a044800        0x0 arch/arm/cpu/armv7/start.o
 .rel.text.genimg_get_cat_name
                0x000000004a044800        0x0 arch/arm/cpu/armv7/start.o
 .rel.text.genimg_get_cat_short_name
                0x000000004a044800        0x0 arch/arm/cpu/armv7/start.o
 .rel.text.genimg_get_cat_count
                0x000000004a044800        0x0 arch/arm/cpu/armv7/start.o
 .rel.text.genimg_get_cat_desc
                0x000000004a044800        0x0 arch/arm/cpu/armv7/start.o
 .rel.text.genimg_get_os_name
                0x000000004a044800       0x10 arch/arm/cpu/armv7/start.o
 .rel.text.genimg_get_arch_name
                0x000000004a044810       0x10 arch/arm/cpu/armv7/start.o
 .rel.text.genimg_get_type_name
                0x000000004a044820       0x10 arch/arm/cpu/armv7/start.o
 .rel.text.genimg_get_type_short_name
                0x000000004a044830        0x0 arch/arm/cpu/armv7/start.o
 .rel.text.genimg_get_comp_name
                0x000000004a044830       0x10 arch/arm/cpu/armv7/start.o
 .rel.text.image_print_contents
                0x000000004a044840       0x58 arch/arm/cpu/armv7/start.o
 .rel.text.genimg_get_comp_short_name
                0x000000004a044898        0x0 arch/arm/cpu/armv7/start.o
 .rel.text.genimg_get_os_short_name
                0x000000004a044898        0x0 arch/arm/cpu/armv7/start.o
 .rel.text.genimg_get_arch_short_name
                0x000000004a044898        0x0 arch/arm/cpu/armv7/start.o
 .rel.text.genimg_get_os_id
                0x000000004a044898        0x0 arch/arm/cpu/armv7/start.o
 .rel.text.genimg_get_arch_id
                0x000000004a044898        0x0 arch/arm/cpu/armv7/start.o
 .rel.text.genimg_get_type_id
                0x000000004a044898        0x0 arch/arm/cpu/armv7/start.o
 .rel.text.genimg_get_comp_id
                0x000000004a044898        0x0 arch/arm/cpu/armv7/start.o
 .rel.text.genimg_get_kernel_addr_fit
                0x000000004a044898        0x8 arch/arm/cpu/armv7/start.o
 .rel.text.boot_get_ramdisk
                0x000000004a0448a0       0x50 arch/arm/cpu/armv7/start.o
 .rel.text.boot_ramdisk_high
                0x000000004a0448f0       0x20 arch/arm/cpu/armv7/start.o
 .rel.text.fdt_error
                0x000000004a044910       0x10 arch/arm/cpu/armv7/start.o
 .rel.text.boot_fdt_add_mem_rsv_regions
                0x000000004a044920        0x8 arch/arm/cpu/armv7/start.o
 .rel.text.boot_relocate_fdt
                0x000000004a044928       0x40 arch/arm/cpu/armv7/start.o
 .rel.text.boot_get_fdt
                0x000000004a044968       0x80 arch/arm/cpu/armv7/start.o
 .rel.text.image_setup_libfdt
                0x000000004a0449e8       0x28 arch/arm/cpu/armv7/start.o
 .rel.text.stdio_get_list
                0x000000004a044a10        0x8 arch/arm/cpu/armv7/start.o
 .rel.text.stdio_get_by_name
                0x000000004a044a18        0x8 arch/arm/cpu/armv7/start.o
 .rel.text.stdio_register_dev
                0x000000004a044a20        0x8 arch/arm/cpu/armv7/start.o
 .rel.text.stdio_deregister_dev
                0x000000004a044a28       0x18 arch/arm/cpu/armv7/start.o
 .rel.text.stdio_init_tables
                0x000000004a044a40        0x8 arch/arm/cpu/armv7/start.o
 .rel.text.stdio_add_devices
                0x000000004a044a48       0x50 arch/arm/cpu/armv7/start.o
 .rel.text.do_run
                0x000000004a044a98        0x8 arch/arm/cpu/armv7/start.o
 .rel.text.cli_process_fdt
                0x000000004a044aa0       0x10 arch/arm/cpu/armv7/start.o
 .rel.text.cli_secure_boot_cmd
                0x000000004a044ab0       0x18 arch/arm/cpu/armv7/start.o
 .rel.text.find_cmd
                0x000000004a044ac8       0x10 arch/arm/cpu/armv7/start.o
 .rel.text.cmd_usage
                0x000000004a044ad8       0x18 arch/arm/cpu/armv7/start.o
 .rel.text._do_help
                0x000000004a044af0       0x10 arch/arm/cpu/armv7/start.o
 .rel.text.var_complete
                0x000000004a044b00       0x10 arch/arm/cpu/armv7/start.o
 .rel.text.cmd_auto_complete
                0x000000004a044b10       0x48 arch/arm/cpu/armv7/start.o
 .rel.text.cmd_get_data_size
                0x000000004a044b58        0x8 arch/arm/cpu/armv7/start.o
 .rel.text.cmd_process
                0x000000004a044b60       0x18 arch/arm/cpu/armv7/start.o
 .rel.text.cmd_process_error
                0x000000004a044b78        0x8 arch/arm/cpu/armv7/start.o
 .rel.text.xyzModem_get_hdr
                0x000000004a044b80       0x20 arch/arm/cpu/armv7/start.o
 .rel.text.xyzModem_stream_open
                0x000000004a044ba0       0x10 arch/arm/cpu/armv7/start.o
 .rel.text.xyzModem_stream_read
                0x000000004a044bb0        0x8 arch/arm/cpu/armv7/start.o
 .rel.text.xyzModem_stream_close
                0x000000004a044bb8       0x20 arch/arm/cpu/armv7/start.o
 .rel.text.xyzModem_stream_terminate
                0x000000004a044bd8        0x8 arch/arm/cpu/armv7/start.o
 .rel.text.xyzModem_error
                0x000000004a044be0       0x10 arch/arm/cpu/armv7/start.o
 .rel.rodata.init_sequence_f
                0x000000004a044bf0      0x140 arch/arm/cpu/armv7/start.o
 .rel.rodata.boot_os
                0x000000004a044d30       0x38 arch/arm/cpu/armv7/start.o
 .rel.rodata.usb_hub_ids
                0x000000004a044d68        0x8 arch/arm/cpu/armv7/start.o
 .rel.rodata.usb_mass_storage_ids
                0x000000004a044d70        0x8 arch/arm/cpu/armv7/start.o
 .rel.rodata.usb_kbd_ids
                0x000000004a044d78        0x8 arch/arm/cpu/armv7/start.o
 .rel.rodata.uimage_comp
                0x000000004a044d80       0x70 arch/arm/cpu/armv7/start.o
 .rel.rodata.uimage_os
                0x000000004a044df0       0xa0 arch/arm/cpu/armv7/start.o
 .rel.rodata.table_info
                0x000000004a044e90        0x0 arch/arm/cpu/armv7/start.o
 .rel.rodata.uimage_type
                0x000000004a044e90      0x210 arch/arm/cpu/armv7/start.o
 .rel.rodata.uimage_arch
                0x000000004a0450a0      0x1a0 arch/arm/cpu/armv7/start.o
 .rel.rodata.CSWTCH.28
                0x000000004a045240       0x40 arch/arm/cpu/armv7/start.o
 .rel.data.hash_algo
                0x000000004a045280        0x0 arch/arm/cpu/armv7/start.o
 .rel.data.reserved_list
                0x000000004a045280       0x58 arch/arm/cpu/armv7/start.o
 .rel.u_boot_list_2_cmd_2_showvar
                0x000000004a0452d8       0x20 arch/arm/cpu/armv7/start.o
 .rel.data.init_sequence_r
                0x000000004a0452f8      0x100 arch/arm/cpu/armv7/start.o
 .rel.data.of_busses
                0x000000004a0453f8       0x28 arch/arm/cpu/armv7/start.o
 .rel.u_boot_list_2_usb_driver_entry_2_usb_generic_hub
                0x000000004a045420       0x10 arch/arm/cpu/armv7/start.o
 .rel.u_boot_list_2_driver_2_usb_generic_hub
                0x000000004a045430       0x10 arch/arm/cpu/armv7/start.o
 .rel.u_boot_list_2_uclass_2_usb_hub
                0x000000004a045440       0x20 arch/arm/cpu/armv7/start.o
 .rel.data.usb_scan_list
                0x000000004a045460       0x10 arch/arm/cpu/armv7/start.o
 .rel.u_boot_list_2_driver_2_usb_mass_storage
                0x000000004a045470       0x18 arch/arm/cpu/armv7/start.o
 .rel.u_boot_list_2_blk_driver_2_usb
                0x000000004a045488       0x10 arch/arm/cpu/armv7/start.o
 .rel.u_boot_list_2_usb_driver_entry_2_usb_mass_storage
                0x000000004a045498       0x10 arch/arm/cpu/armv7/start.o
 .rel.u_boot_list_2_uclass_2_usb_mass_storage
                0x000000004a0454a8        0x8 arch/arm/cpu/armv7/start.o
 .rel.u_boot_list_2_usb_driver_entry_2_usb_kbd
                0x000000004a0454b0       0x10 arch/arm/cpu/armv7/start.o
 .rel.u_boot_list_2_driver_2_usb_kbd
                0x000000004a0454c0       0x20 arch/arm/cpu/armv7/start.o
 .rel.u_boot_list_2_env_clbk_2_console
                0x000000004a0454e0       0x10 arch/arm/cpu/armv7/start.o
 .rel.data.av_  0x000000004a0454f0      0x800 arch/arm/cpu/armv7/start.o
 .rel.u_boot_list_2_env_clbk_2_loadaddr
                0x000000004a045cf0       0x10 arch/arm/cpu/armv7/start.o
 .rel.data.stdio_names
                0x000000004a045d00       0x18 arch/arm/cpu/armv7/start.o
 .rel.text.dev_print
                0x000000004a045d18       0x88 arch/arm/cpu/armv7/start.o
 .rel.text.part_init
                0x000000004a045da0       0x10 arch/arm/cpu/armv7/start.o
 .rel.text.part_print
                0x000000004a045db0       0x78 arch/arm/cpu/armv7/start.o
 .rel.text.part_get_info
                0x000000004a045e28       0x10 arch/arm/cpu/armv7/start.o
 .rel.text.part_get_info_whole_disk
                0x000000004a045e38       0x10 arch/arm/cpu/armv7/start.o
 .rel.text.blk_get_device_by_str
                0x000000004a045e48       0x18 arch/arm/cpu/armv7/start.o
 .rel.text.blk_get_device_part_str
                0x000000004a045e60       0x58 arch/arm/cpu/armv7/start.o
 .rel.text.part_get_info_by_name_type
                0x000000004a045eb8        0x0 arch/arm/cpu/armv7/start.o
 .rel.text.part_set_generic_name
                0x000000004a045eb8       0x18 arch/arm/cpu/armv7/start.o
 .rel.text.test_block_type
                0x000000004a045ed0       0x10 arch/arm/cpu/armv7/start.o
 .rel.text.print_partition_extended
                0x000000004a045ee0       0x30 arch/arm/cpu/armv7/start.o
 .rel.text.part_print_dos
                0x000000004a045f10        0x8 arch/arm/cpu/armv7/start.o
 .rel.text.part_get_info_extended
                0x000000004a045f18       0x20 arch/arm/cpu/armv7/start.o
 .rel.text.write_mbr_partition
                0x000000004a045f38        0x0 arch/arm/cpu/armv7/start.o
 .rel.text.part_get_info_iso_verb
                0x000000004a045f38       0x68 arch/arm/cpu/armv7/start.o
 .rel.text.part_print_iso
                0x000000004a045fa0       0x18 arch/arm/cpu/armv7/start.o
 .rel.text.print_efiname
                0x000000004a045fb8       0x10 arch/arm/cpu/armv7/start.o
 .rel.text.set_protective_mbr
                0x000000004a045fc8       0x20 arch/arm/cpu/armv7/start.o
 .rel.text.validate_gpt_entries
                0x000000004a045fe8       0x10 arch/arm/cpu/armv7/start.o
 .rel.text.validate_gpt_header
                0x000000004a045ff8       0x30 arch/arm/cpu/armv7/start.o
 .rel.text.is_gpt_valid
                0x000000004a046028       0x40 arch/arm/cpu/armv7/start.o
 .rel.text.is_pte_valid
                0x000000004a046068       0x10 arch/arm/cpu/armv7/start.o
 .rel.text.part_print_efi
                0x000000004a046078       0x60 arch/arm/cpu/armv7/start.o
 .rel.text.part_get_info_efi
                0x000000004a0460d8       0x40 arch/arm/cpu/armv7/start.o
 .rel.text.get_disk_guid
                0x000000004a046118       0x20 arch/arm/cpu/armv7/start.o
 .rel.text.write_gpt_table
                0x000000004a046138        0x8 arch/arm/cpu/armv7/start.o
 .rel.text.gpt_fill_pte
                0x000000004a046140       0x20 arch/arm/cpu/armv7/start.o
 .rel.text.gpt_fill_header
                0x000000004a046160        0x8 arch/arm/cpu/armv7/start.o
 .rel.text.gpt_restore
                0x000000004a046168       0x10 arch/arm/cpu/armv7/start.o
 .rel.text.gpt_verify_headers
                0x000000004a046178       0x18 arch/arm/cpu/armv7/start.o
 .rel.text.gpt_verify_partitions
                0x000000004a046190       0x20 arch/arm/cpu/armv7/start.o
 .rel.text.write_mbr_and_gpt_partitions
                0x000000004a0461b0        0x0 arch/arm/cpu/armv7/start.o
 .rel.rodata.CSWTCH.48
                0x000000004a0461b0       0x40 arch/arm/cpu/armv7/start.o
 .rel.u_boot_list_2_part_driver_2_dos
                0x000000004a0461f0       0x20 arch/arm/cpu/armv7/start.o
 .rel.u_boot_list_2_part_driver_2_iso
                0x000000004a046210       0x20 arch/arm/cpu/armv7/start.o
 .rel.u_boot_list_2_part_driver_2_a_efi
                0x000000004a046230       0x20 arch/arm/cpu/armv7/start.o
 .rel.text.device_bind_common.isra.4
                0x000000004a046250       0x10 arch/arm/cpu/armv7/start.o
 .rel.text.device_probe
                0x000000004a046260       0x10 arch/arm/cpu/armv7/start.o
 .rel.text.dev_get_platdata
                0x000000004a046270       0x10 arch/arm/cpu/armv7/start.o
 .rel.text.dev_get_parent_platdata
                0x000000004a046280       0x10 arch/arm/cpu/armv7/start.o
 .rel.text.dev_get_uclass_platdata
                0x000000004a046290       0x10 arch/arm/cpu/armv7/start.o
 .rel.text.dev_get_priv
                0x000000004a0462a0       0x10 arch/arm/cpu/armv7/start.o
 .rel.text.dev_get_uclass_priv
                0x000000004a0462b0       0x10 arch/arm/cpu/armv7/start.o
 .rel.text.dev_get_parent_priv
                0x000000004a0462c0       0x10 arch/arm/cpu/armv7/start.o
 .rel.text.devfdt_get_addr_index
                0x000000004a0462d0        0x8 arch/arm/cpu/armv7/start.o
 .rel.text.devfdt_get_addr_size_index
                0x000000004a0462d8        0x0 arch/arm/cpu/armv7/start.o
 .rel.text.devfdt_get_addr_name
                0x000000004a0462d8        0x0 arch/arm/cpu/armv7/start.o
 .rel.text.lists_driver_lookup_name
                0x000000004a0462d8       0x10 arch/arm/cpu/armv7/start.o
 .rel.text.lists_uclass_lookup
                0x000000004a0462e8       0x10 arch/arm/cpu/armv7/start.o
 .rel.text.lists_bind_drivers
                0x000000004a0462f8       0x18 arch/arm/cpu/armv7/start.o
 .rel.text.lists_bind_fdt
                0x000000004a046310       0x28 arch/arm/cpu/armv7/start.o
 .rel.text.dm_scan_fdt_node
                0x000000004a046338        0x8 arch/arm/cpu/armv7/start.o
 .rel.text.dm_root
                0x000000004a046340        0x8 arch/arm/cpu/armv7/start.o
 .rel.text.dm_init
                0x000000004a046348       0x10 arch/arm/cpu/armv7/start.o
 .rel.text.dm_scan_platdata
                0x000000004a046358        0x8 arch/arm/cpu/armv7/start.o
 .rel.text.dm_extended_scan_fdt
                0x000000004a046360        0x8 arch/arm/cpu/armv7/start.o
 .rel.text.uclass_resolve_seq
                0x000000004a046368        0x8 arch/arm/cpu/armv7/start.o
 .rel.text.dm_fdt_pre_reloc
                0x000000004a046370       0x18 arch/arm/cpu/armv7/start.o
 .rel.text.device_remove
                0x000000004a046388       0x20 arch/arm/cpu/armv7/start.o
 .rel.text.simple_bus_post_bind
                0x000000004a0463a8        0x8 arch/arm/cpu/armv7/start.o
 .rel.text.show_devices
                0x000000004a0463b0       0x30 arch/arm/cpu/armv7/start.o
 .rel.text.dm_dump_all
                0x000000004a0463e0       0x10 arch/arm/cpu/armv7/start.o
 .rel.text.dm_dump_uclass
                0x000000004a0463f0       0x20 arch/arm/cpu/armv7/start.o
 .rel.text.of_read_fmap_entry
                0x000000004a046410        0x0 arch/arm/cpu/armv7/start.o
 .rel.text.ofnode_get_chosen_prop
                0x000000004a046410        0x0 arch/arm/cpu/armv7/start.o
 .rel.text.ofnode_decode_display_timing
                0x000000004a046410        0x0 arch/arm/cpu/armv7/start.o
 .rel.text.ofnode_pre_reloc
                0x000000004a046410        0x0 arch/arm/cpu/armv7/start.o
 .rel.text.ofnode_read_resource
                0x000000004a046410        0x0 arch/arm/cpu/armv7/start.o
 .rel.text.ofnode_read_resource_byname
                0x000000004a046410        0x0 arch/arm/cpu/armv7/start.o
 .rel.text.blk_driver_lookup_type
                0x000000004a046410       0x10 arch/arm/cpu/armv7/start.o
 .rel.text.blk_list_devices
                0x000000004a046420        0x8 arch/arm/cpu/armv7/start.o
 .rel.text.blk_print_device_num
                0x000000004a046428        0x8 arch/arm/cpu/armv7/start.o
 .rel.text.blk_show_device
                0x000000004a046430       0x10 arch/arm/cpu/armv7/start.o
 .rel.text.blk_get_devnum_by_typename
                0x000000004a046440       0x10 arch/arm/cpu/armv7/start.o
 .rel.text.mmc_send_status
                0x000000004a046450       0x10 arch/arm/cpu/armv7/start.o
 .rel.text.mmc_bread
                0x000000004a046460       0x10 arch/arm/cpu/armv7/start.o
 .rel.text.mmc_hwpart_config
                0x000000004a046470       0x48 arch/arm/cpu/armv7/start.o
 .rel.text.mmc_startup
                0x000000004a0464b8       0x50 arch/arm/cpu/armv7/start.o
 .rel.text.mmc_start_init
                0x000000004a046508       0x10 arch/arm/cpu/armv7/start.o
 .rel.text.mmc_init
                0x000000004a046518       0x10 arch/arm/cpu/armv7/start.o
 .rel.text.mmc_initialize
                0x000000004a046528        0x8 arch/arm/cpu/armv7/start.o
 .rel.text.find_mmc_device
                0x000000004a046530       0x10 arch/arm/cpu/armv7/start.o
 .rel.text.mmc_get_next_devnum
                0x000000004a046540        0x8 arch/arm/cpu/armv7/start.o
 .rel.text.get_mmc_num
                0x000000004a046548        0x8 arch/arm/cpu/armv7/start.o
 .rel.text.mmc_do_preinit
                0x000000004a046550        0x8 arch/arm/cpu/armv7/start.o
 .rel.text.mmc_list_init
                0x000000004a046558       0x10 arch/arm/cpu/armv7/start.o
 .rel.text.mmc_list_add
                0x000000004a046568        0x8 arch/arm/cpu/armv7/start.o
 .rel.text.print_mmc_devices
                0x000000004a046570       0x40 arch/arm/cpu/armv7/start.o
 .rel.text.mmc_create
                0x000000004a0465b0       0x18 arch/arm/cpu/armv7/start.o
 .rel.text.mmc_berase
                0x000000004a0465c8       0x10 arch/arm/cpu/armv7/start.o
 .rel.text.mmc_bwrite
                0x000000004a0465d8       0x18 arch/arm/cpu/armv7/start.o
 .rel.text.sunxi_mmc_getcd_gpio
                0x000000004a0465f0       0x10 arch/arm/cpu/armv7/start.o
 .rel.text.mmc_set_mod_clk
                0x000000004a046600        0x8 arch/arm/cpu/armv7/start.o
 .rel.text.sunxi_mmc_init
                0x000000004a046608       0x28 arch/arm/cpu/armv7/start.o
 .rel.text.keyboard_pre_probe
                0x000000004a046630       0x20 arch/arm/cpu/armv7/start.o
 .rel.text._input_send_keycodes
                0x000000004a046650        0x0 arch/arm/cpu/armv7/start.o
 .rel.text.input_add_tables
                0x000000004a046650        0x0 arch/arm/cpu/armv7/start.o
 .rel.text.input_stdio_register
                0x000000004a046650        0x0 arch/arm/cpu/armv7/start.o
 .rel.text.key_matrix_decode_fdt
                0x000000004a046650        0x0 arch/arm/cpu/armv7/start.o
 .rel.rodata.root_info
                0x000000004a046650        0x8 arch/arm/cpu/armv7/start.o
 .rel.rodata.generic_simple_bus_ids
                0x000000004a046658       0x10 arch/arm/cpu/armv7/start.o
 .rel.rodata.sunxi_mmc_ops
                0x000000004a046668       0x20 arch/arm/cpu/armv7/start.o
 .rel.rodata.kbd_to_ansi364
                0x000000004a046688        0x0 arch/arm/cpu/armv7/start.o
 .rel.u_boot_list_2_driver_2_root_driver
                0x000000004a046688        0x8 arch/arm/cpu/armv7/start.o
 .rel.u_boot_list_2_uclass_2_root
                0x000000004a046690        0x8 arch/arm/cpu/armv7/start.o
 .rel.u_boot_list_2_uclass_2_simple_bus
                0x000000004a046698       0x10 arch/arm/cpu/armv7/start.o
 .rel.u_boot_list_2_driver_2_simple_bus_drv
                0x000000004a0466a8       0x10 arch/arm/cpu/armv7/start.o
 .rel.u_boot_list_2_blk_driver_2_mmc
                0x000000004a0466b8       0x18 arch/arm/cpu/armv7/start.o
 .rel.u_boot_list_2_uclass_2_display
                0x000000004a0466d0        0x8 arch/arm/cpu/armv7/start.o
 .rel.u_boot_list_2_uclass_2_keyboard
                0x000000004a0466d8       0x10 arch/arm/cpu/armv7/start.o
 .rel.data.kbd_entry
                0x000000004a0466e8        0x0 arch/arm/cpu/armv7/start.o
 .rel.text.check_reserved
                0x000000004a0466e8       0x10 arch/arm/cpu/armv7/start.o
 .rel.text.dm_gpio_lookup_name
                0x000000004a0466f8        0x8 arch/arm/cpu/armv7/start.o
 .rel.text.gpio_direction_input
                0x000000004a046700        0x8 arch/arm/cpu/armv7/start.o
 .rel.text.gpio_direction_output
                0x000000004a046708        0x8 arch/arm/cpu/armv7/start.o
 .rel.text.dm_gpio_get_value
                0x000000004a046710        0x8 arch/arm/cpu/armv7/start.o
 .rel.text.dm_gpio_set_value
                0x000000004a046718        0x0 arch/arm/cpu/armv7/start.o
 .rel.text.dm_gpio_get_open_drain
                0x000000004a046718        0x0 arch/arm/cpu/armv7/start.o
 .rel.text.dm_gpio_set_open_drain
                0x000000004a046718        0x0 arch/arm/cpu/armv7/start.o
 .rel.text.dm_gpio_set_dir_flags
                0x000000004a046718        0x0 arch/arm/cpu/armv7/start.o
 .rel.text.gpio_request_tail
                0x000000004a046718        0x0 arch/arm/cpu/armv7/start.o
 .rel.text.gpio_get_status
                0x000000004a046718       0x28 arch/arm/cpu/armv7/start.o
 .rel.text.gpio_request_by_name_nodev
                0x000000004a046740        0x0 arch/arm/cpu/armv7/start.o
 .rel.text.gpio_request_by_name
                0x000000004a046740        0x0 arch/arm/cpu/armv7/start.o
 .rel.text.gpio_get_list_count
                0x000000004a046740        0x0 arch/arm/cpu/armv7/start.o
 .rel.text.gpio_request_list_by_name_nodev
                0x000000004a046740        0x0 arch/arm/cpu/armv7/start.o
 .rel.rodata.gpio_function
                0x000000004a046740       0x28 arch/arm/cpu/armv7/start.o
 .rel.rodata.sunxi_gpio_ids
                0x000000004a046768      0x110 arch/arm/cpu/armv7/start.o
 .rel.rodata.gpio_sunxi_ops
                0x000000004a046878       0x30 arch/arm/cpu/armv7/start.o
 .rel.u_boot_list_2_uclass_2_gpio
                0x000000004a0468a8       0x18 arch/arm/cpu/armv7/start.o
 .rel.u_boot_list_2_driver_2_gpio_sunxi
                0x000000004a0468c0       0x28 arch/arm/cpu/armv7/start.o
 .rel.text.i2c_dump_msgs
                0x000000004a0468e8        0x0 arch/arm/cpu/armv7/start.o
 .rel.text.i2c_get_chip
                0x000000004a0468e8       0x10 arch/arm/cpu/armv7/start.o
 .rel.text.i2c_post_probe
                0x000000004a0468f8        0x8 arch/arm/cpu/armv7/start.o
 .rel.text.i2c_chip_ofdata_to_platdata
                0x000000004a046900       0x10 arch/arm/cpu/armv7/start.o
 .rel.text.mvtwsi_i2c_ofdata_to_platdata
                0x000000004a046910       0x18 arch/arm/cpu/armv7/start.o
 .rel.rodata.mvtwsi_i2c_ops
                0x000000004a046928       0x18 arch/arm/cpu/armv7/start.o
 .rel.rodata.mvtwsi_i2c_ids
                0x000000004a046940       0x18 arch/arm/cpu/armv7/start.o
 .rel.u_boot_list_2_driver_2_i2c_generic_chip_drv
                0x000000004a046958        0x8 arch/arm/cpu/armv7/start.o
 .rel.u_boot_list_2_uclass_2_i2c
                0x000000004a046960       0x20 arch/arm/cpu/armv7/start.o
 .rel.u_boot_list_2_uclass_2_i2c_generic
                0x000000004a046980        0x8 arch/arm/cpu/armv7/start.o
 .rel.u_boot_list_2_driver_2_i2c_mvtwsi
                0x000000004a046988       0x28 arch/arm/cpu/armv7/start.o
 .rel.text.serial_post_probe
                0x000000004a0469b0       0x20 arch/arm/cpu/armv7/start.o
 .rel.text.serial_init
                0x000000004a0469d0       0x18 arch/arm/cpu/armv7/start.o
 .rel.text.on_baudrate
                0x000000004a0469e8       0x18 arch/arm/cpu/armv7/start.o
 .rel.text.ns16550_serial_ofdata_to_platdata
                0x000000004a046a00       0x18 arch/arm/cpu/armv7/start.o
 .rel.rodata.ns16550_serial_ops
                0x000000004a046a18       0x20 arch/arm/cpu/armv7/start.o
 .rel.rodata.ns16550_serial_ids
                0x000000004a046a38       0x58 arch/arm/cpu/armv7/start.o
 .rel.u_boot_list_2_env_clbk_2_baudrate
                0x000000004a046a90       0x10 arch/arm/cpu/armv7/start.o
 .rel.u_boot_list_2_uclass_2_serial
                0x000000004a046aa0       0x18 arch/arm/cpu/armv7/start.o
 .rel.u_boot_list_2_driver_2_ns16550_serial
                0x000000004a046ab8       0x28 arch/arm/cpu/armv7/start.o
 .rel.text.spi_set_wordlen
                0x000000004a046ae0        0x0 arch/arm/cpu/armv7/start.o
 .rel.text.usb_get_dr_mode
                0x000000004a046ae0        0x0 arch/arm/cpu/armv7/start.o
 .rel.rodata.usb_dr_modes
                0x000000004a046ae0        0x0 arch/arm/cpu/armv7/start.o
 .rel.text.usb_ep_autoconfig
                0x000000004a046ae0        0x0 arch/arm/cpu/armv7/start.o
 .rel.text.usb_ep_autoconfig_reset
                0x000000004a046ae0        0x0 arch/arm/cpu/armv7/start.o
 .rel.text.usb_child_post_bind
                0x000000004a046ae0       0x10 arch/arm/cpu/armv7/start.o
 .rel.text.usb_disable_asynch
                0x000000004a046af0        0x8 arch/arm/cpu/armv7/start.o
 .rel.text.usb_stop
                0x000000004a046af8        0x8 arch/arm/cpu/armv7/start.o
 .rel.text.usb_scan_device
                0x000000004a046b00       0x20 arch/arm/cpu/armv7/start.o
 .rel.text.usb_scan_bus.isra.5
                0x000000004a046b20       0x20 arch/arm/cpu/armv7/start.o
 .rel.text.usb_init
                0x000000004a046b40       0x38 arch/arm/cpu/armv7/start.o
 .rel.u_boot_list_2_uclass_2_usb_dev_generic
                0x000000004a046b78        0x8 arch/arm/cpu/armv7/start.o
 .rel.u_boot_list_2_driver_2_usb_dev_generic_drv
                0x000000004a046b80        0x8 arch/arm/cpu/armv7/start.o
 .rel.u_boot_list_2_uclass_2_usb
                0x000000004a046b88       0x20 arch/arm/cpu/armv7/start.o
 .rel.text.set_default_env
                0x000000004a046ba8       0x30 arch/arm/cpu/armv7/start.o
 .rel.text.set_default_vars
                0x000000004a046bd8       0x10 arch/arm/cpu/armv7/start.o
 .rel.text.env_import
                0x000000004a046be8       0x28 arch/arm/cpu/armv7/start.o
 .rel.text.env_export
                0x000000004a046c10       0x18 arch/arm/cpu/armv7/start.o
 .rel.text.env_relocate
                0x000000004a046c28        0x8 arch/arm/cpu/armv7/start.o
 .rel.text.env_complete
                0x000000004a046c30       0x18 arch/arm/cpu/armv7/start.o
 .rel.text.env_driver_lookup_default
                0x000000004a046c48       0x10 arch/arm/cpu/armv7/start.o
 .rel.text.env_get_char
                0x000000004a046c58        0x8 arch/arm/cpu/armv7/start.o
 .rel.text.env_init
                0x000000004a046c60        0x8 arch/arm/cpu/armv7/start.o
 .rel.text.regex_callback
                0x000000004a046c68       0x10 arch/arm/cpu/armv7/start.o
 .rel.text.env_attr_lookup
                0x000000004a046c78        0x8 arch/arm/cpu/armv7/start.o
 .rel.text.find_env_callback
                0x000000004a046c80       0x10 arch/arm/cpu/armv7/start.o
 .rel.text.on_callbacks
                0x000000004a046c90       0x20 arch/arm/cpu/armv7/start.o
 .rel.text.set_callback
                0x000000004a046cb0        0x8 arch/arm/cpu/armv7/start.o
 .rel.text.env_callback_init
                0x000000004a046cb8       0x20 arch/arm/cpu/armv7/start.o
 .rel.text.skip_num
                0x000000004a046cd8        0x8 arch/arm/cpu/armv7/start.o
 .rel.text.on_flags
                0x000000004a046ce0       0x20 arch/arm/cpu/armv7/start.o
 .rel.text.env_flags_parse_vartype
                0x000000004a046d00       0x10 arch/arm/cpu/armv7/start.o
 .rel.text.env_flags_parse_varaccess
                0x000000004a046d10       0x10 arch/arm/cpu/armv7/start.o
 .rel.text.set_flags
                0x000000004a046d20       0x10 arch/arm/cpu/armv7/start.o
 .rel.text.env_flags_parse_varaccess_from_binflags
                0x000000004a046d30        0x0 arch/arm/cpu/armv7/start.o
 .rel.text.env_flags_init
                0x000000004a046d30       0x30 arch/arm/cpu/armv7/start.o
 .rel.text.env_flags_validate
                0x000000004a046d60       0x38 arch/arm/cpu/armv7/start.o
 .rel.text.mmc_get_env_addr
                0x000000004a046d98       0x20 arch/arm/cpu/armv7/start.o
 .rel.text.env_mmc_save
                0x000000004a046db8       0x38 arch/arm/cpu/armv7/start.o
 .rel.text.env_mmc_load
                0x000000004a046df0       0x18 arch/arm/cpu/armv7/start.o
 .rel.data.env_htab
                0x000000004a046e08        0x8 arch/arm/cpu/armv7/start.o
 .rel.u_boot_list_2_env_clbk_2_callbacks
                0x000000004a046e10       0x10 arch/arm/cpu/armv7/start.o
 .rel.u_boot_list_2_env_clbk_2_flags
                0x000000004a046e20       0x10 arch/arm/cpu/armv7/start.o
 .rel.u_boot_list_2_env_driver_2_mmc
                0x000000004a046e30       0x18 arch/arm/cpu/armv7/start.o
 .rel.text.fs_probe_unsupported
                0x000000004a046e48        0x8 arch/arm/cpu/armv7/start.o
 .rel.text.fs_get_info
                0x000000004a046e50        0x8 arch/arm/cpu/armv7/start.o
 .rel.text.fs_close
                0x000000004a046e58        0x8 arch/arm/cpu/armv7/start.o
 .rel.text.fs_set_blk_dev
                0x000000004a046e60       0x30 arch/arm/cpu/armv7/start.o
 .rel.text.fs_set_blk_dev_with_part
                0x000000004a046e90       0x20 arch/arm/cpu/armv7/start.o
 .rel.text.fs_uuid
                0x000000004a046eb0        0x0 arch/arm/cpu/armv7/start.o
 .rel.text.fs_ls
                0x000000004a046eb0        0x8 arch/arm/cpu/armv7/start.o
 .rel.text.fs_exists
                0x000000004a046eb8        0x8 arch/arm/cpu/armv7/start.o
 .rel.text.fs_size
                0x000000004a046ec0        0x8 arch/arm/cpu/armv7/start.o
 .rel.text.fs_read
                0x000000004a046ec8       0x10 arch/arm/cpu/armv7/start.o
 .rel.text.fs_write
                0x000000004a046ed8       0x10 arch/arm/cpu/armv7/start.o
 .rel.text.fs_opendir
                0x000000004a046ee8       0x20 arch/arm/cpu/armv7/start.o
 .rel.text.fs_readdir
                0x000000004a046f08       0x10 arch/arm/cpu/armv7/start.o
 .rel.text.fs_closedir
                0x000000004a046f18        0x8 arch/arm/cpu/armv7/start.o
 .rel.text.fs_ls_generic
                0x000000004a046f20       0x20 arch/arm/cpu/armv7/start.o
 .rel.text.do_size
                0x000000004a046f40        0x8 arch/arm/cpu/armv7/start.o
 .rel.text.do_load
                0x000000004a046f48       0x50 arch/arm/cpu/armv7/start.o
 .rel.text.do_ls
                0x000000004a046f98        0x8 arch/arm/cpu/armv7/start.o
 .rel.text.do_save
                0x000000004a046fa0       0x28 arch/arm/cpu/armv7/start.o
 .rel.text.do_fs_uuid
                0x000000004a046fc8        0x0 arch/arm/cpu/armv7/start.o
 .rel.text.do_fs_type
                0x000000004a046fc8       0x10 arch/arm/cpu/armv7/start.o
 .rel.text.get_fs
                0x000000004a046fd8        0x8 arch/arm/cpu/armv7/start.o
 .rel.text.ext4fs_free_node
                0x000000004a046fe0        0x8 arch/arm/cpu/armv7/start.o
 .rel.text.ext4fs_read_file
                0x000000004a046fe8        0x8 arch/arm/cpu/armv7/start.o
 .rel.text.ext4fs_ls
                0x000000004a046ff0       0x10 arch/arm/cpu/armv7/start.o
 .rel.text.ext4fs_read
                0x000000004a047000       0x10 arch/arm/cpu/armv7/start.o
 .rel.text.ext4_read_file
                0x000000004a047010        0x8 arch/arm/cpu/armv7/start.o
 .rel.text.ext4fs_uuid
                0x000000004a047018        0x8 arch/arm/cpu/armv7/start.o
 .rel.text.read_allocated_block
                0x000000004a047020       0xe0 arch/arm/cpu/armv7/start.o
 .rel.text.ext4fs_reinit_global
                0x000000004a047100       0x48 arch/arm/cpu/armv7/start.o
 .rel.text.ext4fs_close
                0x000000004a047148       0x10 arch/arm/cpu/armv7/start.o
 .rel.text.ext4fs_iterate_dir
                0x000000004a047158       0x30 arch/arm/cpu/armv7/start.o
 .rel.text.ext4fs_find_file1
                0x000000004a047188       0x10 arch/arm/cpu/armv7/start.o
 .rel.text.ext4fs_find_file
                0x000000004a047198        0x8 arch/arm/cpu/armv7/start.o
 .rel.text.ext4fs_open
                0x000000004a0471a0       0x10 arch/arm/cpu/armv7/start.o
 .rel.text.ext4fs_mount
                0x000000004a0471b0       0x10 arch/arm/cpu/armv7/start.o
 .rel.text.ext4fs_set_blk_dev
                0x000000004a0471c0       0x18 arch/arm/cpu/armv7/start.o
 .rel.text.ext4fs_devread
                0x000000004a0471d8        0x8 arch/arm/cpu/armv7/start.o
 .rel.text.downcase
                0x000000004a0471e0        0x8 arch/arm/cpu/armv7/start.o
 .rel.text.disk_read
                0x000000004a0471e8       0x10 arch/arm/cpu/armv7/start.o
 .rel.text.disk_write
                0x000000004a0471f8       0x20 arch/arm/cpu/armv7/start.o
 .rel.text.flush_dirty_fat_buffer
                0x000000004a047218        0x8 arch/arm/cpu/armv7/start.o
 .rel.text.get_fatent
                0x000000004a047220        0x8 arch/arm/cpu/armv7/start.o
 .rel.text.get_cluster
                0x000000004a047228        0x8 arch/arm/cpu/armv7/start.o
 .rel.text.set_cluster
                0x000000004a047230        0x8 arch/arm/cpu/armv7/start.o
 .rel.text.read_bootsectandvi
                0x000000004a047238       0x20 arch/arm/cpu/armv7/start.o
 .rel.text.fat_itr_root
                0x000000004a047258       0x10 arch/arm/cpu/armv7/start.o
 .rel.text.set_name
                0x000000004a047268        0x8 arch/arm/cpu/armv7/start.o
 .rel.text.check_overflow
                0x000000004a047270        0x8 arch/arm/cpu/armv7/start.o
 .rel.text.flush_dir_table.constprop.11
                0x000000004a047278       0x20 arch/arm/cpu/armv7/start.o
 .rel.text.do_fat_write
                0x000000004a047298       0xa8 arch/arm/cpu/armv7/start.o
 .rel.text.fat_set_blk_dev
                0x000000004a047340       0x28 arch/arm/cpu/armv7/start.o
 .rel.text.fat_register_device
                0x000000004a047368        0x0 arch/arm/cpu/armv7/start.o
 .rel.text.file_fat_detectfs
                0x000000004a047368       0x70 arch/arm/cpu/armv7/start.o
 .rel.text.file_fat_read_at
                0x000000004a0473d8       0x20 arch/arm/cpu/armv7/start.o
 .rel.text.fat_read_file
                0x000000004a0473f8        0x8 arch/arm/cpu/armv7/start.o
 .rel.text.file_fat_write
                0x000000004a047400       0x10 arch/arm/cpu/armv7/start.o
 .rel.text.fs_devread
                0x000000004a047410       0x30 arch/arm/cpu/armv7/start.o
 .rel.data.fstypes
                0x000000004a047440      0x100 arch/arm/cpu/armv7/start.o
 .rel.text.efi_load_pe
                0x000000004a047540       0x90 arch/arm/cpu/armv7/start.o
 .rel.text.indent_string
                0x000000004a0475d0        0x8 arch/arm/cpu/armv7/start.o
 .rel.text.efi_uninstall_protocol_interface.isra.1.part.2
                0x000000004a0475d8        0x8 arch/arm/cpu/armv7/start.o
 .rel.text.efi_install_protocol_interface
                0x000000004a0475e0        0x8 arch/arm/cpu/armv7/start.o
 .rel.text.efi_locate_handle.isra.5
                0x000000004a0475e8        0x8 arch/arm/cpu/armv7/start.o
 .rel.text.__efi_entry_check
                0x000000004a0475f0       0x18 arch/arm/cpu/armv7/start.o
 .rel.text.__efi_exit_check
                0x000000004a047608       0x10 arch/arm/cpu/armv7/start.o
 .rel.text.efi_locate_protocol
                0x000000004a047618        0x8 arch/arm/cpu/armv7/start.o
 .rel.text.efi_protocols_per_handle
                0x000000004a047620        0x8 arch/arm/cpu/armv7/start.o
 .rel.text.efi_open_protocol
                0x000000004a047628        0x8 arch/arm/cpu/armv7/start.o
 .rel.text.efi_get_next_monotonic_count
                0x000000004a047630        0x8 arch/arm/cpu/armv7/start.o
 .rel.text.efi_unload_image
                0x000000004a047638        0x8 arch/arm/cpu/armv7/start.o
 .rel.text.efi_close_event
                0x000000004a047640        0x8 arch/arm/cpu/armv7/start.o
 .rel.text.efi_restore_tpl
                0x000000004a047648        0x8 arch/arm/cpu/armv7/start.o
 .rel.text.efi_raise_tpl
                0x000000004a047650        0x8 arch/arm/cpu/armv7/start.o
 .rel.text.efi_save_gd
                0x000000004a047658        0x8 arch/arm/cpu/armv7/start.o
 .rel.text.efi_restore_gd
                0x000000004a047660        0x8 arch/arm/cpu/armv7/start.o
 .rel.text.__efi_nesting
                0x000000004a047668        0x0 arch/arm/cpu/armv7/start.o
 .rel.text.__efi_nesting_inc
                0x000000004a047668        0x8 arch/arm/cpu/armv7/start.o
 .rel.text.__efi_nesting_dec
                0x000000004a047670        0x8 arch/arm/cpu/armv7/start.o
 .rel.text.efi_start_image
                0x000000004a047678       0x10 arch/arm/cpu/armv7/start.o
 .rel.text.efi_signal_event
                0x000000004a047688        0x8 arch/arm/cpu/armv7/start.o
 .rel.text.efi_exit_boot_services
                0x000000004a047690       0x18 arch/arm/cpu/armv7/start.o
 .rel.text.efi_signal_event_ext
                0x000000004a0476a8        0x8 arch/arm/cpu/armv7/start.o
 .rel.text.efi_create_event
                0x000000004a0476b0        0x8 arch/arm/cpu/armv7/start.o
 .rel.text.efi_timer_check
                0x000000004a0476b8        0x8 arch/arm/cpu/armv7/start.o
 .rel.text.efi_check_event
                0x000000004a0476c0        0x8 arch/arm/cpu/armv7/start.o
 .rel.text.efi_wait_for_event
                0x000000004a0476c8       0x10 arch/arm/cpu/armv7/start.o
 .rel.text.efi_set_timer
                0x000000004a0476d8        0x8 arch/arm/cpu/armv7/start.o
 .rel.text.efi_install_configuration_table
                0x000000004a0476e0        0x8 arch/arm/cpu/armv7/start.o
 .rel.text.efi_setup_loaded_image
                0x000000004a0476e8       0x38 arch/arm/cpu/armv7/start.o
 .rel.text.efi_load_image_from_path
                0x000000004a047720       0x10 arch/arm/cpu/armv7/start.o
 .rel.text.efi_runtime_relocate
                0x000000004a047730       0x28 arch/arm/cpu/armv7/start.o
 .rel.text.efi_set_virtual_address_map
                0x000000004a047758       0x18 arch/arm/cpu/armv7/start.o
 .rel.text.efi_add_runtime_mmio
                0x000000004a047770        0x0 arch/arm/cpu/armv7/start.o
 .rel.text.efi_cout_enable_cursor
                0x000000004a047770        0x8 arch/arm/cpu/armv7/start.o
 .rel.text.efi_cout_set_cursor_position
                0x000000004a047778       0x10 arch/arm/cpu/armv7/start.o
 .rel.text.efi_cout_clear_screen
                0x000000004a047788        0x8 arch/arm/cpu/armv7/start.o
 .rel.text.efi_cout_set_attribute
                0x000000004a047790       0x18 arch/arm/cpu/armv7/start.o
 .rel.text.efi_cout_output_string
                0x000000004a0477a8       0x10 arch/arm/cpu/armv7/start.o
 .rel.text.efi_console_timer_notify
                0x000000004a0477b8        0x8 arch/arm/cpu/armv7/start.o
 .rel.text.efi_cout_set_mode
                0x000000004a0477c0        0x8 arch/arm/cpu/armv7/start.o
 .rel.text.efi_cout_query_mode
                0x000000004a0477c8       0x30 arch/arm/cpu/armv7/start.o
 .rel.text.efi_console_register
                0x000000004a0477f8       0x58 arch/arm/cpu/armv7/start.o
 .rel.text.efi_find_free_memory
                0x000000004a047850        0x8 arch/arm/cpu/armv7/start.o
 .rel.text.efi_add_memory_map
                0x000000004a047858       0x10 arch/arm/cpu/armv7/start.o
 .rel.text.efi_get_memory_map
                0x000000004a047868        0x8 arch/arm/cpu/armv7/start.o
 .rel.text.efi_memory_init
                0x000000004a047870       0x10 arch/arm/cpu/armv7/start.o
 .rel.text.efi_convert_device_node_to_text.isra.1
                0x000000004a047880       0x88 arch/arm/cpu/armv7/start.o
 .rel.text.dp_fill
                0x000000004a047908        0x8 arch/arm/cpu/armv7/start.o
 .rel.text.find_obj
                0x000000004a047910       0x10 arch/arm/cpu/armv7/start.o
 .rel.text.efi_dp_append
                0x000000004a047920        0x0 arch/arm/cpu/armv7/start.o
 .rel.text.efi_dp_append_node
                0x000000004a047920        0x0 arch/arm/cpu/armv7/start.o
 .rel.text.efi_dp_from_dev
                0x000000004a047920        0x0 arch/arm/cpu/armv7/start.o
 .rel.text.efi_dp_from_part
                0x000000004a047920       0x10 arch/arm/cpu/armv7/start.o
 .rel.text.efi_dp_from_file
                0x000000004a047930       0x10 arch/arm/cpu/armv7/start.o
 .rel.text.efi_dp_from_eth
                0x000000004a047940        0x8 arch/arm/cpu/armv7/start.o
 .rel.text.efi_dp_from_mem
                0x000000004a047948        0x8 arch/arm/cpu/armv7/start.o
 .rel.text.efi_file_getinfo
                0x000000004a047950        0x8 arch/arm/cpu/armv7/start.o
 .rel.text.file_open
                0x000000004a047958       0x28 arch/arm/cpu/armv7/start.o
 .rel.text.efi_file_from_path
                0x000000004a047980        0x8 arch/arm/cpu/armv7/start.o
 .rel.text.efi_simple_file_system
                0x000000004a047988        0x8 arch/arm/cpu/armv7/start.o
 .rel.text.efi_to_native
                0x000000004a047990        0x8 arch/arm/cpu/armv7/start.o
 .rel.text.parse_attr.part.1
                0x000000004a047998       0x20 arch/arm/cpu/armv7/start.o
 .rel.text.efi_get_variable
                0x000000004a0479b8       0x18 arch/arm/cpu/armv7/start.o
 .rel.text.efi_set_variable
                0x000000004a0479d0       0x48 arch/arm/cpu/armv7/start.o
 .rel.text.get_var.constprop.0
                0x000000004a047a18       0x10 arch/arm/cpu/armv7/start.o
 .rel.text.efi_bootmgr_load
                0x000000004a047a28       0x38 arch/arm/cpu/armv7/start.o
 .rel.text.efi_disk_add_dev.isra.3.part.4
                0x000000004a047a60       0x40 arch/arm/cpu/armv7/start.o
 .rel.text.efi_disk_register
                0x000000004a047aa0       0x20 arch/arm/cpu/armv7/start.o
 .rel.text.efi_net_push
                0x000000004a047ac0       0x10 arch/arm/cpu/armv7/start.o
 .rel.text.efi_network_timer_notify
                0x000000004a047ad0       0x18 arch/arm/cpu/armv7/start.o
 .rel.text.efi_net_get_status
                0x000000004a047ae8       0x10 arch/arm/cpu/armv7/start.o
 .rel.text.efi_net_transmit
                0x000000004a047af8        0x8 arch/arm/cpu/armv7/start.o
 .rel.text.efi_net_receive
                0x000000004a047b00       0x18 arch/arm/cpu/armv7/start.o
 .rel.text.efi_net_set_dhcp_ack
                0x000000004a047b18        0x8 arch/arm/cpu/armv7/start.o
 .rel.text.efi_net_register
                0x000000004a047b20       0xb8 arch/arm/cpu/armv7/start.o
 .rel.text.efi_smbios_register
                0x000000004a047bd8        0x8 arch/arm/cpu/armv7/start.o
 .rel.text.crc7
                0x000000004a047be0        0x0 arch/arm/cpu/armv7/start.o
 .rel.text.crc16_ccitt
                0x000000004a047be0        0x8 arch/arm/cpu/armv7/start.o
 .rel.text.smbios_write_type3
                0x000000004a047be8        0x8 arch/arm/cpu/armv7/start.o
 .rel.text.smbios_write_type2
                0x000000004a047bf0       0x10 arch/arm/cpu/armv7/start.o
 .rel.text.smbios_write_type0
                0x000000004a047c00       0x18 arch/arm/cpu/armv7/start.o
 .rel.text.smbios_write_type1
                0x000000004a047c18       0x18 arch/arm/cpu/armv7/start.o
 .rel.text.smbios_write_type4
                0x000000004a047c30        0x8 arch/arm/cpu/armv7/start.o
 .rel.text.write_smbios_table
                0x000000004a047c38       0x18 arch/arm/cpu/armv7/start.o
 .rel.text.initcall_run_list
                0x000000004a047c50        0x8 arch/arm/cpu/armv7/start.o
 .rel.text.lmb_alloc_base
                0x000000004a047c58        0x8 arch/arm/cpu/armv7/start.o
 .rel.text.list_sort
                0x000000004a047c60        0x8 arch/arm/cpu/armv7/start.o
 .rel.text.inflate_fast
                0x000000004a047c68       0x18 arch/arm/cpu/armv7/start.o
 .rel.text.inflate_table
                0x000000004a047c80       0x20 arch/arm/cpu/armv7/start.o
 .rel.text.inflateInit2_
                0x000000004a047ca0       0x10 arch/arm/cpu/armv7/start.o
 .rel.text.inflate
                0x000000004a047cb0       0xa0 arch/arm/cpu/armv7/start.o
 .rel.text.gzip_parse_header
                0x000000004a047d50       0x10 arch/arm/cpu/armv7/start.o
 .rel.text.zunzip
                0x000000004a047d60       0x28 arch/arm/cpu/armv7/start.o
 .rel.text.fdt_strerror
                0x000000004a047d88       0x20 arch/arm/cpu/armv7/start.o
 .rel.text.fdt_create_empty_tree
                0x000000004a047da8        0x0 arch/arm/cpu/armv7/start.o
 .rel.text.fdt_address_cells
                0x000000004a047da8        0x8 arch/arm/cpu/armv7/start.o
 .rel.text.fdt_size_cells
                0x000000004a047db0        0x8 arch/arm/cpu/armv7/start.o
 .rel.text.fdt_get_phandle
                0x000000004a047db8        0x0 arch/arm/cpu/armv7/start.o
 .rel.text.fdt_get_alias_namelen
                0x000000004a047db8        0x8 arch/arm/cpu/armv7/start.o
 .rel.text.fdt_node_check_compatible
                0x000000004a047dc0        0x0 arch/arm/cpu/armv7/start.o
 .rel.text.fdt_add_alias_regions
                0x000000004a047dc0        0x0 arch/arm/cpu/armv7/start.o
 .rel.text.fdt_next_region
                0x000000004a047dc0        0x0 arch/arm/cpu/armv7/start.o
 .rel.text.fdtdec_get_compatible
                0x000000004a047dc0        0x0 arch/arm/cpu/armv7/start.o
 .rel.text.fdtdec_get_is_enabled
                0x000000004a047dc0       0x10 arch/arm/cpu/armv7/start.o
 .rel.text.fdtdec_lookup
                0x000000004a047dd0        0x0 arch/arm/cpu/armv7/start.o
 .rel.text.fdtdec_next_compatible
                0x000000004a047dd0        0x0 arch/arm/cpu/armv7/start.o
 .rel.text.fdtdec_next_compatible_subnode
                0x000000004a047dd0        0x0 arch/arm/cpu/armv7/start.o
 .rel.text.fdtdec_next_alias
                0x000000004a047dd0        0x0 arch/arm/cpu/armv7/start.o
 .rel.text.fdtdec_add_aliases_for_id
                0x000000004a047dd0        0x0 arch/arm/cpu/armv7/start.o
 .rel.text.fdtdec_get_alias_seq
                0x000000004a047dd0        0x8 arch/arm/cpu/armv7/start.o
 .rel.text.fdtdec_get_chosen_prop
                0x000000004a047dd8        0x8 arch/arm/cpu/armv7/start.o
 .rel.text.fdtdec_prepare_fdt
                0x000000004a047de0        0x8 arch/arm/cpu/armv7/start.o
 .rel.text.fdtdec_get_config_int
                0x000000004a047de8        0x8 arch/arm/cpu/armv7/start.o
 .rel.text.fdtdec_get_config_bool
                0x000000004a047df0        0x0 arch/arm/cpu/armv7/start.o
 .rel.text.fdtdec_get_config_string
                0x000000004a047df0        0x8 arch/arm/cpu/armv7/start.o
 .rel.text.fdtdec_decode_memory_region
                0x000000004a047df8        0x0 arch/arm/cpu/armv7/start.o
 .rel.text.fdtdec_decode_display_timing
                0x000000004a047df8        0x0 arch/arm/cpu/armv7/start.o
 .rel.text.fdtdec_setup_memory_size
                0x000000004a047df8        0x0 arch/arm/cpu/armv7/start.o
 .rel.text.fdtdec_setup_memory_banksize
                0x000000004a047df8        0x0 arch/arm/cpu/armv7/start.o
 .rel.text.fdtdec_setup
                0x000000004a047df8       0x10 arch/arm/cpu/armv7/start.o
 .rel.text.match_string
                0x000000004a047e08        0x8 arch/arm/cpu/armv7/start.o
 .rel.text.match_entry
                0x000000004a047e10        0x8 arch/arm/cpu/armv7/start.o
 .rel.text.hcreate_r
                0x000000004a047e18        0x8 arch/arm/cpu/armv7/start.o
 .rel.text.hdestroy_r
                0x000000004a047e20        0x8 arch/arm/cpu/armv7/start.o
 .rel.text.hmatch_r
                0x000000004a047e28        0x8 arch/arm/cpu/armv7/start.o
 .rel.text.hsearch_r
                0x000000004a047e30        0x8 arch/arm/cpu/armv7/start.o
 .rel.text.hdelete_r
                0x000000004a047e38        0x8 arch/arm/cpu/armv7/start.o
 .rel.text.hexport_r
                0x000000004a047e40       0x18 arch/arm/cpu/armv7/start.o
 .rel.text.himport_r
                0x000000004a047e58       0x20 arch/arm/cpu/armv7/start.o
 .rel.text.display_options_get_banner_priv
                0x000000004a047e78       0x28 arch/arm/cpu/armv7/start.o
 .rel.text.display_options
                0x000000004a047ea0        0x8 arch/arm/cpu/armv7/start.o
 .rel.text.print_freq
                0x000000004a047ea8        0x0 arch/arm/cpu/armv7/start.o
 .rel.text.print_size
                0x000000004a047ea8       0x28 arch/arm/cpu/armv7/start.o
 .rel.text.print_buffer
                0x000000004a047ed0       0x28 arch/arm/cpu/armv7/start.o
 .rel.text.crc32_no_comp
                0x000000004a047ef8        0x8 arch/arm/cpu/armv7/start.o
 .rel.text.hang
                0x000000004a047f00        0x8 arch/arm/cpu/armv7/start.o
 .rel.text.skip_spaces
                0x000000004a047f08        0x8 arch/arm/cpu/armv7/start.o
 .rel.text.strim
                0x000000004a047f10        0x8 arch/arm/cpu/armv7/start.o
 .rel.text.emit
                0x000000004a047f18        0x8 arch/arm/cpu/armv7/start.o
 .rel.text.store_char_in_data
                0x000000004a047f20        0x8 arch/arm/cpu/armv7/start.o
 .rel.text.match
                0x000000004a047f28       0x10 arch/arm/cpu/armv7/start.o
 .rel.text.fixup_branch.part.0
                0x000000004a047f38        0x8 arch/arm/cpu/armv7/start.o
 .rel.text.quantifier
                0x000000004a047f40        0x8 arch/arm/cpu/armv7/start.o
 .rel.text.compile
                0x000000004a047f48       0x28 arch/arm/cpu/armv7/start.o
 .rel.text.strncasecmp
                0x000000004a047f70        0x8 arch/arm/cpu/armv7/start.o
 .rel.text.strtok
                0x000000004a047f78        0x0 arch/arm/cpu/armv7/start.o
 .rel.text.uuid_str_valid
                0x000000004a047f78        0x8 arch/arm/cpu/armv7/start.o
 .rel.text.uuid_bin_to_str
                0x000000004a047f80       0x18 arch/arm/cpu/armv7/start.o
 .rel.text.rand
                0x000000004a047f98        0x8 arch/arm/cpu/armv7/start.o
 .rel.text.srand
                0x000000004a047fa0        0x0 arch/arm/cpu/armv7/start.o
 .rel.text.number
                0x000000004a047fa0        0x8 arch/arm/cpu/armv7/start.o
 .rel.text.string
                0x000000004a047fa8        0x8 arch/arm/cpu/armv7/start.o
 .rel.text.vsnprintf_internal
                0x000000004a047fb0       0x18 arch/arm/cpu/armv7/start.o
 .rel.text.__assert_fail
                0x000000004a047fc8        0x0 arch/arm/cpu/armv7/start.o
 .rel.text.simple_itoa
                0x000000004a047fc8        0x8 arch/arm/cpu/armv7/start.o
 .rel.text.print_grouped_ull
                0x000000004a047fd0        0x0 arch/arm/cpu/armv7/start.o
 .rel.text._parse_integer_fixup_radix
                0x000000004a047fd0        0x8 arch/arm/cpu/armv7/start.o
 .rel.text.simple_strtoul
                0x000000004a047fd8        0x8 arch/arm/cpu/armv7/start.o
 .rel.text.simple_strtoull
                0x000000004a047fe0        0x8 arch/arm/cpu/armv7/start.o
 .rel.text.trailing_strtoln
                0x000000004a047fe8        0x8 arch/arm/cpu/armv7/start.o
 .rel.text.strmhz
                0x000000004a047ff0        0x0 arch/arm/cpu/armv7/start.o
 .rel.rodata.efi_boot_services
                0x000000004a047ff0      0x150 arch/arm/cpu/armv7/start.o
 .rel.rodata.efi_runtime_detach_list
                0x000000004a048140       0x80 arch/arm/cpu/armv7/start.o
 .rel.rodata.efi_console_control
                0x000000004a0481c0       0x18 arch/arm/cpu/armv7/start.o
 .rel.rodata.efi_con_out
                0x000000004a0481d8       0x50 arch/arm/cpu/armv7/start.o
 .rel.rodata.efi_device_path_to_text
                0x000000004a048228       0x10 arch/arm/cpu/armv7/start.o
 .rel.rodata.efi_file_handle_protocol
                0x000000004a048238       0x50 arch/arm/cpu/armv7/start.o
 .rel.rodata.smbios_write_funcs
                0x000000004a048288       0x38 arch/arm/cpu/armv7/start.o
 .rel.rodata.z_errmsg
                0x000000004a0482c0        0x0 arch/arm/cpu/armv7/start.o
 .rel.rodata.fdt_errtable
                0x000000004a0482c0       0x88 arch/arm/cpu/armv7/start.o
 .rel.rodata.compat_names
                0x000000004a048348        0x0 arch/arm/cpu/armv7/start.o
 .rel.data.efi_obj_list
                0x000000004a048348       0x10 arch/arm/cpu/armv7/start.o
 .rel.data.efi_runtime_mmio
                0x000000004a048358       0x10 arch/arm/cpu/armv7/start.o
 .rel.data.efi_con_in
                0x000000004a048368       0x10 arch/arm/cpu/armv7/start.o
 .rel.data.efi_console_input_obj
                0x000000004a048378       0x18 arch/arm/cpu/armv7/start.o
 .rel.data.efi_console_output_obj
                0x000000004a048390       0x18 arch/arm/cpu/armv7/start.o
 .rel.data.efi_console_control_obj
                0x000000004a0483a8       0x18 arch/arm/cpu/armv7/start.o
 .rel.data.efi_mem
                0x000000004a0483c0       0x10 arch/arm/cpu/armv7/start.o
 .rel.data.current
                0x000000004a0483d0        0x0 arch/arm/cpu/armv7/start.o
 .rel.text.arp_init
                0x000000004a0483d0       0x30 arch/arm/cpu/armv7/start.o
 .rel.text.arp_raw_request
                0x000000004a048400       0x18 arch/arm/cpu/armv7/start.o
 .rel.text.arp_request
                0x000000004a048418       0x38 arch/arm/cpu/armv7/start.o
 .rel.text.arp_timeout_check
                0x000000004a048450       0x28 arch/arm/cpu/armv7/start.o
 .rel.text.arp_receive
                0x000000004a048478       0x40 arch/arm/cpu/armv7/start.o
 .rel.text.dhcp_extended
                0x000000004a0484b8       0x28 arch/arm/cpu/armv7/start.o
 .rel.text.dhcp_process_options
                0x000000004a0484e0       0x68 arch/arm/cpu/armv7/start.o
 .rel.text.dhcp_packet_process_options
                0x000000004a048548        0x8 arch/arm/cpu/armv7/start.o
 .rel.text.dhcp_handler
                0x000000004a048550       0x90 arch/arm/cpu/armv7/start.o
 .rel.text.bootp_reset
                0x000000004a0485e0       0x20 arch/arm/cpu/armv7/start.o
 .rel.text.bootp_request
                0x000000004a048600       0x78 arch/arm/cpu/armv7/start.o
 .rel.text.bootp_timeout_handler
                0x000000004a048678       0x28 arch/arm/cpu/armv7/start.o
 .rel.text.eth_write_hwaddr
                0x000000004a0486a0       0x10 arch/arm/cpu/armv7/start.o
 .rel.text.eth_post_probe
                0x000000004a0486b0       0x30 arch/arm/cpu/armv7/start.o
 .rel.text.eth_post_bind
                0x000000004a0486e0        0x8 arch/arm/cpu/armv7/start.o
 .rel.text.eth_get_dev
                0x000000004a0486e8        0x8 arch/arm/cpu/armv7/start.o
 .rel.text.eth_set_dev
                0x000000004a0486f0        0x8 arch/arm/cpu/armv7/start.o
 .rel.text.eth_get_dev_by_name
                0x000000004a0486f8        0x8 arch/arm/cpu/armv7/start.o
 .rel.text.eth_init
                0x000000004a048700       0x28 arch/arm/cpu/armv7/start.o
 .rel.text.eth_initialize
                0x000000004a048728       0x28 arch/arm/cpu/armv7/start.o
 .rel.text.eth_env_set_enetaddr
                0x000000004a048750        0x8 arch/arm/cpu/armv7/start.o
 .rel.text.eth_env_get_enetaddr_by_index
                0x000000004a048758       0x10 arch/arm/cpu/armv7/start.o
 .rel.text.eth_env_set_enetaddr_by_index
                0x000000004a048768       0x10 arch/arm/cpu/armv7/start.o
 .rel.text.eth_mac_skip
                0x000000004a048778       0x10 arch/arm/cpu/armv7/start.o
 .rel.text.eth_get_name
                0x000000004a048788        0x8 arch/arm/cpu/armv7/start.o
 .rel.text.eth_current_changed
                0x000000004a048790       0x18 arch/arm/cpu/armv7/start.o
 .rel.text.eth_try_another
                0x000000004a0487a8       0x20 arch/arm/cpu/armv7/start.o
 .rel.text.eth_set_current
                0x000000004a0487c8       0x20 arch/arm/cpu/armv7/start.o
 .rel.text.start_again_timeout_handler
                0x000000004a0487e8        0x8 arch/arm/cpu/armv7/start.o
 .rel.text.on_ipaddr
                0x000000004a0487f0        0x8 arch/arm/cpu/armv7/start.o
 .rel.text.on_gatewayip
                0x000000004a0487f8        0x8 arch/arm/cpu/armv7/start.o
 .rel.text.on_netmask
                0x000000004a048800        0x8 arch/arm/cpu/armv7/start.o
 .rel.text.on_serverip
                0x000000004a048808        0x8 arch/arm/cpu/armv7/start.o
 .rel.text.net_init_loop
                0x000000004a048810        0x8 arch/arm/cpu/armv7/start.o
 .rel.text.net_clear_handlers
                0x000000004a048818       0x20 arch/arm/cpu/armv7/start.o
 .rel.text.net_auto_load
                0x000000004a048838       0x18 arch/arm/cpu/armv7/start.o
 .rel.text.net_init
                0x000000004a048850       0x20 arch/arm/cpu/armv7/start.o
 .rel.text.net_start_again
                0x000000004a048870       0x78 arch/arm/cpu/armv7/start.o
 .rel.text.net_loop
                0x000000004a0488e8      0x110 arch/arm/cpu/armv7/start.o
 .rel.text.net_get_udp_handler
                0x000000004a0489f8        0x0 arch/arm/cpu/armv7/start.o
 .rel.text.net_set_udp_handler
                0x000000004a0489f8       0x10 arch/arm/cpu/armv7/start.o
 .rel.text.net_get_arp_handler
                0x000000004a048a08        0x8 arch/arm/cpu/armv7/start.o
 .rel.text.net_set_arp_handler
                0x000000004a048a10        0x0 arch/arm/cpu/armv7/start.o
 .rel.text.net_set_timeout_handler
                0x000000004a048a10       0x18 arch/arm/cpu/armv7/start.o
 .rel.text.net_process_received_packet
                0x000000004a048a28       0x40 arch/arm/cpu/armv7/start.o
 .rel.text.net_eth_hdr_size
                0x000000004a048a68        0x8 arch/arm/cpu/armv7/start.o
 .rel.text.net_set_ether
                0x000000004a048a70       0x10 arch/arm/cpu/armv7/start.o
 .rel.text.net_update_ether
                0x000000004a048a80        0x8 arch/arm/cpu/armv7/start.o
 .rel.text.net_set_ip_header
                0x000000004a048a88        0x8 arch/arm/cpu/armv7/start.o
 .rel.text.net_set_udp_header
                0x000000004a048a90        0x8 arch/arm/cpu/armv7/start.o
 .rel.text.net_send_udp_packet
                0x000000004a048a98       0x40 arch/arm/cpu/armv7/start.o
 .rel.text.on_bootfile
                0x000000004a048ad8        0x8 arch/arm/cpu/armv7/start.o
 .rel.text.ip_to_string
                0x000000004a048ae0        0x8 arch/arm/cpu/armv7/start.o
 .rel.text.vlan_to_string
                0x000000004a048ae8        0x0 arch/arm/cpu/armv7/start.o
 .rel.text.on_nvlan
                0x000000004a048ae8        0x8 arch/arm/cpu/armv7/start.o
 .rel.text.on_vlan
                0x000000004a048af0        0x8 arch/arm/cpu/armv7/start.o
 .rel.text.rpc_lookup_reply
                0x000000004a048af8       0x18 arch/arm/cpu/armv7/start.o
 .rel.text.nfs_mount_reply
                0x000000004a048b10       0x18 arch/arm/cpu/armv7/start.o
 .rel.text.nfs_umountall_reply
                0x000000004a048b28       0x18 arch/arm/cpu/armv7/start.o
 .rel.text.nfs_lookup_reply
                0x000000004a048b40       0x30 arch/arm/cpu/armv7/start.o
 .rel.text.nfs_readlink_reply
                0x000000004a048b70       0x20 arch/arm/cpu/armv7/start.o
 .rel.text.rpc_req
                0x000000004a048b90       0x40 arch/arm/cpu/armv7/start.o
 .rel.text.nfs_umountall_req
                0x000000004a048bd0       0x10 arch/arm/cpu/armv7/start.o
 .rel.text.nfs_read_reply.isra.2
                0x000000004a048be0       0x30 arch/arm/cpu/armv7/start.o
 .rel.text.nfs_readlink_req
                0x000000004a048c10       0x18 arch/arm/cpu/armv7/start.o
 .rel.text.nfs_read_req
                0x000000004a048c28       0x18 arch/arm/cpu/armv7/start.o
 .rel.text.nfs_lookup_req
                0x000000004a048c40       0x10 arch/arm/cpu/armv7/start.o
 .rel.text.nfs_send
                0x000000004a048c50       0x30 arch/arm/cpu/armv7/start.o
 .rel.text.nfs_handler
                0x000000004a048c80       0x70 arch/arm/cpu/armv7/start.o
 .rel.text.nfs_timeout_handler
                0x000000004a048cf0       0x20 arch/arm/cpu/armv7/start.o
 .rel.text.nfs_start
                0x000000004a048d10       0x88 arch/arm/cpu/armv7/start.o
 .rel.text.ping_timeout_handler
                0x000000004a048d98        0x8 arch/arm/cpu/armv7/start.o
 .rel.text.ping_start
                0x000000004a048da0       0x58 arch/arm/cpu/armv7/start.o
 .rel.text.ping_receive
                0x000000004a048df8       0x18 arch/arm/cpu/armv7/start.o
 .rel.text.tftp_send
                0x000000004a048e10       0x80 arch/arm/cpu/armv7/start.o
 .rel.text.tftp_handler
                0x000000004a048e90       0xd0 arch/arm/cpu/armv7/start.o
 .rel.text.tftp_timeout_handler
                0x000000004a048f60       0x40 arch/arm/cpu/armv7/start.o
 .rel.text.tftp_start
                0x000000004a048fa0      0x148 arch/arm/cpu/armv7/start.o
 .rel.u_boot_list_2_uclass_2_eth
                0x000000004a0490e8       0x28 arch/arm/cpu/armv7/start.o
 .rel.u_boot_list_2_env_clbk_2_ethaddr
                0x000000004a049110       0x10 arch/arm/cpu/armv7/start.o
 .rel.u_boot_list_2_env_clbk_2_ipaddr
                0x000000004a049120       0x10 arch/arm/cpu/armv7/start.o
 .rel.u_boot_list_2_env_clbk_2_vlan
                0x000000004a049130       0x10 arch/arm/cpu/armv7/start.o
 .rel.u_boot_list_2_env_clbk_2_nvlan
                0x000000004a049140       0x10 arch/arm/cpu/armv7/start.o
 .rel.u_boot_list_2_env_clbk_2_bootfile
                0x000000004a049150       0x10 arch/arm/cpu/armv7/start.o
 .rel.u_boot_list_2_env_clbk_2_serverip
                0x000000004a049160       0x10 arch/arm/cpu/armv7/start.o
 .rel.u_boot_list_2_env_clbk_2_netmask
                0x000000004a049170       0x10 arch/arm/cpu/armv7/start.o
 .rel.u_boot_list_2_env_clbk_2_gatewayip
                0x000000004a049180       0x10 arch/arm/cpu/armv7/start.o
 .rel.text.do_dm
                0x000000004a049190        0x8 arch/arm/cpu/armv7/start.o
 .rel.u_boot_list_2_cmd_2_dm
                0x000000004a049198       0x20 arch/arm/cpu/armv7/start.o
 .rel.data.test_commands
                0x000000004a0491b8       0x60 arch/arm/cpu/armv7/start.o
 .rel.text.raise
                0x000000004a049218        0x0 arch/arm/cpu/armv7/start.o

.rel_dyn_end    0x000000004a049218        0x0
 *(.__rel_dyn_end)
 .__rel_dyn_end
                0x000000004a049218        0x0 arch/arm/lib/built-in.o

.end            0x000000004a049218        0x0
 *(.__end)
 .__end         0x000000004a049218        0x0 arch/arm/lib/built-in.o
                0x000000004a049218                _image_binary_end = .
                0x000000004a04a000                . = ALIGN (0x1000)

.mmutable
 *(.mmutable)

.bss_start      0x000000004a0402f0        0x0
 *(.__bss_start)
 .__bss_start   0x000000004a0402f0        0x0 arch/arm/lib/built-in.o
                0x000000004a0402f0                __bss_start
                0x000000004a0402f0                __bss_base = .

.bss            0x000000004a0402f0    0x3b1ec
 *(.bss*)
 .bss.params    0x000000004a0402f0        0x4 arch/arm/lib/built-in.o
 .bss.efi_obj_list_initalized
                0x000000004a0402f4        0x1 cmd/built-in.o
 *fill*         0x000000004a0402f5        0x3 
 .bss.bootefi_device_path
                0x000000004a0402f8        0x4 cmd/built-in.o
 .bss.bootefi_image_path
                0x000000004a0402fc        0x4 cmd/built-in.o
 .bss.data.7859
                0x000000004a040300      0x400 cmd/built-in.o
 .bss.working_fdt
                0x000000004a040700        0x4 cmd/built-in.o
                0x000000004a040700                working_fdt
 .bss.i2c_mm_last_addr
                0x000000004a040704        0x4 cmd/built-in.o
 .bss.i2c_mm_last_chip
                0x000000004a040708        0x4 cmd/built-in.o
 .bss.i2c_mm_last_alen
                0x000000004a04070c        0x4 cmd/built-in.o
 .bss.i2c_dp_last_chip
                0x000000004a040710        0x4 cmd/built-in.o
 .bss.i2c_dp_last_addr
                0x000000004a040714        0x4 cmd/built-in.o
 .bss.i2c_cur_bus
                0x000000004a040718        0x4 cmd/built-in.o
 .bss.i2c_dp_last_alen
                0x000000004a04071c        0x4 cmd/built-in.o
 .bss.send_parms
                0x000000004a040720       0x14 cmd/built-in.o
 .bss.os_data_init
                0x000000004a040734        0x4 cmd/built-in.o
 .bss.os_data_addr_saved
                0x000000004a040738        0x4 cmd/built-in.o
 .bss.his_pad_char
                0x000000004a04073c        0x1 cmd/built-in.o
 .bss.a_b       0x000000004a04073d       0x18 cmd/built-in.o
 *fill*         0x000000004a040755        0x3 
 .bss.os_data_char
                0x000000004a040758        0x4 cmd/built-in.o
 .bss.os_data_state
                0x000000004a04075c        0x4 cmd/built-in.o
 .bss.k_data_escape
                0x000000004a040760        0x4 cmd/built-in.o
 .bss.os_data_state_saved
                0x000000004a040764        0x4 cmd/built-in.o
 .bss.os_data_addr
                0x000000004a040768        0x4 cmd/built-in.o
 .bss.send_ptr  0x000000004a04076c        0x4 cmd/built-in.o
 .bss.bin_start_address
                0x000000004a040770        0x4 cmd/built-in.o
 .bss.his_quote
                0x000000004a040774        0x1 cmd/built-in.o
 *fill*         0x000000004a040775        0x3 
 .bss.his_pad_count
                0x000000004a040778        0x4 cmd/built-in.o
 .bss.his_eol   0x000000004a04077c        0x1 cmd/built-in.o
 *fill*         0x000000004a04077d        0x3 
 .bss.k_data_escape_saved
                0x000000004a040780        0x4 cmd/built-in.o
 .bss.dp_last_addr
                0x000000004a040784        0x4 cmd/built-in.o
 .bss.base_address
                0x000000004a040788        0x4 cmd/built-in.o
 .bss.mm_last_size
                0x000000004a04078c        0x4 cmd/built-in.o
 .bss.mm_last_addr
                0x000000004a040790        0x4 cmd/built-in.o
 .bss.dp_last_size
                0x000000004a040794        0x4 cmd/built-in.o
 .bss.last_data
                0x000000004a040798        0x4 cmd/built-in.o
 .bss.last_reg_hi
                0x000000004a04079c        0x4 cmd/built-in.o
 .bss.last_mask
                0x000000004a0407a0        0x4 cmd/built-in.o
 .bss.last_addr_lo
                0x000000004a0407a4        0x4 cmd/built-in.o
 .bss.last_op   0x000000004a0407a8        0x2 cmd/built-in.o
 *fill*         0x000000004a0407aa        0x2 
 .bss.last_addr_hi
                0x000000004a0407ac        0x4 cmd/built-in.o
 .bss.last_reg_lo
                0x000000004a0407b0        0x4 cmd/built-in.o
 .bss.do_getfile
                0x000000004a0407b4        0x4 cmd/built-in.o
 .bss.is_pxe    0x000000004a0407b8        0x1 cmd/built-in.o
 *fill*         0x000000004a0407b9        0x3 
 .bss.fs_argv   0x000000004a0407bc       0x14 cmd/built-in.o
 .bss.flag_repeat
                0x000000004a0407d0        0x4 common/built-in.o
 .bss.buf.7512  0x000000004a0407d4       0x28 common/built-in.o
 .bss.the_command.7312
                0x000000004a0407fc      0x401 common/built-in.o
 *fill*         0x000000004a040bfd        0x3 
 .bss.ifs       0x000000004a040c00        0x4 common/built-in.o
 .bss.last_return_code
                0x000000004a040c04        0x4 common/built-in.o
 .bss.map       0x000000004a040c08      0x100 common/built-in.o
 .bss.do_repeat
                0x000000004a040d08        0x4 common/built-in.o
 .bss.top_vars  0x000000004a040d0c        0x4 common/built-in.o
 .bss.stored_bootdelay
                0x000000004a040d10        0x4 common/built-in.o
 .bss.boot_source
                0x000000004a040d14        0x4 common/built-in.o
 .bss.monitor_flash_len
                0x000000004a040d18        0x4 common/built-in.o
                0x000000004a040d18                monitor_flash_len
 .bss.images    0x000000004a040d1c      0x130 common/built-in.o
                0x000000004a040d1c                images
 .bss.current_mii
                0x000000004a040e4c        0x4 common/built-in.o
 .bss.mii_devs  0x000000004a040e50        0x8 common/built-in.o
 .bss.usb_started
                0x000000004a040e58        0x1 common/built-in.o
                0x000000004a040e58                usb_started
 *fill*         0x000000004a040e59        0x3 
 .bss.running.9986
                0x000000004a040e5c        0x4 common/built-in.o
 .bss.usb_stor  0x000000004a040e60      0x188 common/built-in.o
 .bss.usb_dev_desc
                0x000000004a040fe8      0x3b8 common/built-in.o
 .bss.usb_max_devs
                0x000000004a0413a0        0x4 common/built-in.o
 .bss.CBWTag    0x000000004a0413a4        0x4 common/built-in.o
 *fill*         0x000000004a0413a8       0x18 
 .bss.usb_ccb   0x000000004a0413c0       0xc0 common/built-in.o
 .bss.kbd_testc_tms
                0x000000004a041480        0x4 common/built-in.o
 .bss.hist_list
                0x000000004a041484       0x50 common/built-in.o
 .bss.hist_lines
                0x000000004a0414d4     0x5014 common/built-in.o
 .bss.hist_max  0x000000004a0464e8        0x4 common/built-in.o
 .bss.hist_add_idx
                0x000000004a0464ec        0x4 common/built-in.o
 .bss.hist_num  0x000000004a0464f0        0x4 common/built-in.o
 .bss.console_buffer
                0x000000004a0464f4      0x401 common/built-in.o
                0x000000004a0464f4                console_buffer
 *fill*         0x000000004a0468f5        0x3 
 .bss.initted.7106
                0x000000004a0468f8        0x4 common/built-in.o
 .bss.ctrlc_was_pressed
                0x000000004a0468fc        0x4 common/built-in.o
 .bss.cd_count  0x000000004a046900        0xc common/built-in.o
                0x000000004a046900                cd_count
 .bss.tstcdev   0x000000004a04690c        0x4 common/built-in.o
 .bss.ctrlc_disabled
                0x000000004a046910        0x4 common/built-in.o
 .bss.console_devices
                0x000000004a046914        0xc common/built-in.o
                0x000000004a046914                console_devices
 .bss.max_total_mem
                0x000000004a046920        0x4 common/built-in.o
 .bss.mem_malloc_brk
                0x000000004a046924        0x4 common/built-in.o
                0x000000004a046924                mem_malloc_brk
 .bss.max_sbrked_mem
                0x000000004a046928        0x4 common/built-in.o
 .bss.current_mallinfo
                0x000000004a04692c       0x28 common/built-in.o
 .bss.mem_malloc_end
                0x000000004a046954        0x4 common/built-in.o
                0x000000004a046954                mem_malloc_end
 .bss.top_pad   0x000000004a046958        0x4 common/built-in.o
 .bss.mem_malloc_start
                0x000000004a04695c        0x4 common/built-in.o
                0x000000004a04695c                mem_malloc_start
 .bss.devs      0x000000004a046960       0x4c common/built-in.o
 .bss.stdio_devices
                0x000000004a0469ac        0xc common/built-in.o
                0x000000004a0469ac                stdio_devices
 .bss.tmp_buf   0x000000004a0469b8      0x400 common/built-in.o
 .bss.tmp_buf.7071
                0x000000004a046db8      0x200 common/built-in.o
 .bss.xyz       0x000000004a046fb8      0x434 common/built-in.o
 *fill*         0x000000004a0473ec       0x14 
 .bss.tmpbuf    0x000000004a047400      0x800 disk/built-in.o
 .bss.name.8234
                0x000000004a047c00       0x25 disk/built-in.o
 *fill*         0x000000004a047c25        0x3 
 .bss.initialized.9749
                0x000000004a047c28        0x4 drivers/built-in.o
 .bss.mmc_devices
                0x000000004a047c2c        0x8 drivers/built-in.o
 .bss.mmc_host  0x000000004a047c34       0xf0 drivers/built-in.o
                0x000000004a047c34                mmc_host
 .bss.asynch_allowed
                0x000000004a047d24        0x1 drivers/usb/host/built-in.o
 *fill*         0x000000004a047d25        0x3 
 .bss.callback_list
                0x000000004a047d28        0x4 env/built-in.o
 .bss.flags_list
                0x000000004a047d2c        0x4 env/built-in.o
 .bss.fs_partition
                0x000000004a047d30       0x78 fs/built-in.o
 .bss.fs_type   0x000000004a047da8        0x4 fs/built-in.o
 .bss.fs_dev_desc
                0x000000004a047dac        0x4 fs/built-in.o
 .bss.fs_dev_part
                0x000000004a047db0        0x4 fs/built-in.o
 *fill*         0x000000004a047db4        0x4 
 .bss.ext_fs    0x000000004a047db8       0x48 fs/built-in.o
                0x000000004a047db8                ext_fs
 .bss.ext4fs_indir3_block
                0x000000004a047e00        0x4 fs/built-in.o
                0x000000004a047e00                ext4fs_indir3_block
 .bss.ext4fs_root
                0x000000004a047e04        0x4 fs/built-in.o
                0x000000004a047e04                ext4fs_root
 .bss.ext4fs_indir3_size
                0x000000004a047e08        0x4 fs/built-in.o
                0x000000004a047e08                ext4fs_indir3_size
 .bss.ext4fs_indir1_block
                0x000000004a047e0c        0x4 fs/built-in.o
                0x000000004a047e0c                ext4fs_indir1_block
 .bss.ext4fs_indir2_size
                0x000000004a047e10        0x4 fs/built-in.o
                0x000000004a047e10                ext4fs_indir2_size
 .bss.ext4fs_indir2_block
                0x000000004a047e14        0x4 fs/built-in.o
                0x000000004a047e14                ext4fs_indir2_block
 .bss.ext4fs_indir1_size
                0x000000004a047e18        0x4 fs/built-in.o
                0x000000004a047e18                ext4fs_indir1_size
 .bss.symlinknest
                0x000000004a047e1c        0x4 fs/built-in.o
 .bss.ext4fs_file
                0x000000004a047e20        0x4 fs/built-in.o
                0x000000004a047e20                ext4fs_file
 .bss.part_info
                0x000000004a047e24        0x4 fs/built-in.o
 .bss.part_offset
                0x000000004a047e28        0x4 fs/built-in.o
                0x000000004a047e28                part_offset
 .bss.ext4fs_blk_desc
                0x000000004a047e2c        0x4 fs/built-in.o
 *fill*         0x000000004a047e30       0x10 
 .bss.get_contents_vfatname_block
                0x000000004a047e40    0x10000 fs/built-in.o
                0x000000004a047e40                get_contents_vfatname_block
 .bss.do_fat_read_at_block
                0x000000004a057e40    0x10000 fs/built-in.o
                0x000000004a057e40                do_fat_read_at_block
 .bss.get_dentfromdir_block
                0x000000004a067e40    0x10000 fs/built-in.o
                0x000000004a067e40                get_dentfromdir_block
 .bss.empty_dentptr
                0x000000004a077e40        0x4 fs/built-in.o
 .bss.cur_part_info
                0x000000004a077e44       0x78 fs/built-in.o
 .bss.total_sector
                0x000000004a077ebc        0x4 fs/built-in.o
 .bss.dir_curclust
                0x000000004a077ec0        0x4 fs/built-in.o
 .bss.num_of_fats
                0x000000004a077ec4        0x1 fs/built-in.o
 *fill*         0x000000004a077ec5        0x3 
 .bss.cur_dev   0x000000004a077ec8        0x4 fs/built-in.o
 .bss.ret.8759  0x000000004a077ecc        0x4 lib/built-in.o
 .bss.mono.8848
                0x000000004a077ed0        0x8 lib/built-in.o
 .bss.entry_count
                0x000000004a077ed8        0x4 lib/built-in.o
 .bss.app_gd    0x000000004a077edc        0x4 lib/built-in.o
 .bss.nesting_level
                0x000000004a077ee0        0x4 lib/built-in.o
 .bss.efi_gd    0x000000004a077ee4        0x4 lib/built-in.o
 .bss.efi_events
                0x000000004a077ee8      0x280 lib/built-in.o
 .bss.console_timer_event
                0x000000004a078168        0x4 lib/built-in.o
 .bss.console_size_queried
                0x000000004a07816c        0x1 lib/built-in.o
 *fill*         0x000000004a07816d        0x3 
 .bss.rs        0x000000004a078170        0x4 lib/built-in.o
 .bss.bs        0x000000004a078174        0x4 lib/built-in.o
 .bss.new_rx_packet
                0x000000004a078178        0x1 lib/built-in.o
 *fill*         0x000000004a078179        0x3 
 .bss.wait_for_packet
                0x000000004a07817c        0x4 lib/built-in.o
 .bss.network_timer_event
                0x000000004a078180        0x4 lib/built-in.o
 .bss.dhcp_ack  0x000000004a078184        0x4 lib/built-in.o
 .bss.new_tx_packet
                0x000000004a078188        0x4 lib/built-in.o
 .bss.errno     0x000000004a07818c        0x4 lib/built-in.o
                0x000000004a07818c                errno
 .bss.local.7283
                0x000000004a078190       0x16 lib/built-in.o
 .bss.arp_tx_packet_buf
                0x000000004a0781a6      0x640 net/built-in.o
 *fill*         0x000000004a0787e6        0x2 
 .bss.arp_wait_packet_ethaddr
                0x000000004a0787e8        0x4 net/built-in.o
                0x000000004a0787e8                arp_wait_packet_ethaddr
 .bss.arp_tx_packet
                0x000000004a0787ec        0x4 net/built-in.o
 .bss.arp_wait_tx_packet_size
                0x000000004a0787f0        0x4 net/built-in.o
                0x000000004a0787f0                arp_wait_tx_packet_size
 .bss.arp_wait_try
                0x000000004a0787f4        0x4 net/built-in.o
                0x000000004a0787f4                arp_wait_try
 .bss.net_arp_wait_reply_ip
                0x000000004a0787f8        0x4 net/built-in.o
 .bss.net_arp_wait_packet_ip
                0x000000004a0787fc        0x4 net/built-in.o
                0x000000004a0787fc                net_arp_wait_packet_ip
 .bss.arp_wait_timer_start
                0x000000004a078800        0x4 net/built-in.o
                0x000000004a078800                arp_wait_timer_start
 .bss.dhcp_state
                0x000000004a078804        0x4 net/built-in.o
 .bss.net_hostname
                0x000000004a078808       0x20 net/built-in.o
                0x000000004a078808                net_hostname
 .bss.bootp_timeout
                0x000000004a078828        0x4 net/built-in.o
                0x000000004a078828                bootp_timeout
 .bss.dhcp_server_ip
                0x000000004a07882c        0x4 net/built-in.o
 .bss.dhcp_option_overload
                0x000000004a078830        0x1 net/built-in.o
 *fill*         0x000000004a078831        0x3 
 .bss.time_taken_max
                0x000000004a078834        0x4 net/built-in.o
 .bss.net_root_path
                0x000000004a078838       0x40 net/built-in.o
                0x000000004a078838                net_root_path
 .bss.bootp_ids
                0x000000004a078878       0x10 net/built-in.o
                0x000000004a078878                bootp_ids
 .bss.bootp_num_ids
                0x000000004a078888        0x4 net/built-in.o
                0x000000004a078888                bootp_num_ids
 .bss.bootp_try
                0x000000004a07888c        0x4 net/built-in.o
                0x000000004a07888c                bootp_try
 .bss.bootp_start
                0x000000004a078890        0x4 net/built-in.o
                0x000000004a078890                bootp_start
 .bss.dhcp_leasetime
                0x000000004a078894        0x4 net/built-in.o
 .bss.net_nis_domain
                0x000000004a078898       0x20 net/built-in.o
                0x000000004a078898                net_nis_domain
 .bss.eth_errno
                0x000000004a0788b8        0x4 net/built-in.o
 .bss.env_changed_id.9500
                0x000000004a0788bc        0x4 net/built-in.o
 .bss.act.9499  0x000000004a0788c0        0x4 net/built-in.o
 .bss.first_failed.9494
                0x000000004a0788c4        0x4 net/built-in.o
 .bss.net_ethaddr
                0x000000004a0788c8        0x6 net/built-in.o
                0x000000004a0788c8                net_ethaddr
 *fill*         0x000000004a0788ce        0x2 
 .bss.net_dns_server
                0x000000004a0788d0        0x4 net/built-in.o
                0x000000004a0788d0                net_dns_server
 .bss.net_state
                0x000000004a0788d4        0x4 net/built-in.o
                0x000000004a0788d4                net_state
 .bss.net_server_ip
                0x000000004a0788d8        0x4 net/built-in.o
                0x000000004a0788d8                net_server_ip
 .bss.net_rx_packet
                0x000000004a0788dc        0x4 net/built-in.o
                0x000000004a0788dc                net_rx_packet
 .bss.net_boot_file_expected_size_in_blocks
                0x000000004a0788e0        0x4 net/built-in.o
                0x000000004a0788e0                net_boot_file_expected_size_in_blocks
 .bss.net_rx_packets
                0x000000004a0788e4       0x10 net/built-in.o
                0x000000004a0788e4                net_rx_packets
 .bss.time_start
                0x000000004a0788f4        0x8 net/built-in.o
 .bss.net_gateway
                0x000000004a0788fc        0x4 net/built-in.o
                0x000000004a0788fc                net_gateway
 .bss.net_boot_file_name
                0x000000004a078900      0x400 net/built-in.o
                0x000000004a078900                net_boot_file_name
 .bss.udp_packet_handler
                0x000000004a078d00        0x4 net/built-in.o
 .bss.net_dev_exists
                0x000000004a078d04        0x4 net/built-in.o
 .bss.net_try_count
                0x000000004a078d08        0x4 net/built-in.o
 .bss.net_server_ethaddr
                0x000000004a078d0c        0x6 net/built-in.o
                0x000000004a078d0c                net_server_ethaddr
 .bss.net_null_ethaddr
                0x000000004a078d12        0x6 net/built-in.o
                0x000000004a078d12                net_null_ethaddr
 .bss.net_ip_id
                0x000000004a078d18        0x4 net/built-in.o
 .bss.net_restart_wrap
                0x000000004a078d1c        0x4 net/built-in.o
                0x000000004a078d1c                net_restart_wrap
 .bss.net_busy_flag
                0x000000004a078d20        0x4 net/built-in.o
                0x000000004a078d20                net_busy_flag
 .bss.net_restarted
                0x000000004a078d24        0x4 net/built-in.o
 .bss.time_delta
                0x000000004a078d28        0x4 net/built-in.o
 .bss.arp_packet_handler
                0x000000004a078d2c        0x4 net/built-in.o
 .bss.net_netmask
                0x000000004a078d30        0x4 net/built-in.o
                0x000000004a078d30                net_netmask
 .bss.net_pkt_buf
                0x000000004a078d34     0x1e40 net/built-in.o
 .bss.net_ip    0x000000004a07ab74        0x4 net/built-in.o
                0x000000004a07ab74                net_ip
 .bss.net_rx_packet_len
                0x000000004a07ab78        0x4 net/built-in.o
                0x000000004a07ab78                net_rx_packet_len
 .bss.net_tx_packet
                0x000000004a07ab7c        0x4 net/built-in.o
                0x000000004a07ab7c                net_tx_packet
 .bss.time_handler
                0x000000004a07ab80        0x4 net/built-in.o
 .bss.push_packet
                0x000000004a07ab84        0x4 net/built-in.o
                0x000000004a07ab84                push_packet
 .bss.net_boot_file_size
                0x000000004a07ab88        0x4 net/built-in.o
                0x000000004a07ab88                net_boot_file_size
 .bss.nfs_server_mount_port
                0x000000004a07ab8c        0x4 net/built-in.o
 .bss.nfs_server_ip
                0x000000004a07ab90        0x4 net/built-in.o
 .bss.nfs_filename
                0x000000004a07ab94        0x4 net/built-in.o
 .bss.nfs_state
                0x000000004a07ab98        0x4 net/built-in.o
 .bss.filefh3_length
                0x000000004a07ab9c        0x4 net/built-in.o
 .bss.dirfh     0x000000004a07aba0       0x20 net/built-in.o
 .bss.rpc_id    0x000000004a07abc0        0x4 net/built-in.o
 .bss.fs_mounted
                0x000000004a07abc4        0x4 net/built-in.o
 .bss.nfs_len   0x000000004a07abc8        0x4 net/built-in.o
 .bss.nfs_server_port
                0x000000004a07abcc        0x4 net/built-in.o
 .bss.nfs_download_state
                0x000000004a07abd0        0x4 net/built-in.o
 .bss.nfs_path  0x000000004a07abd4        0x4 net/built-in.o
 .bss.nfs_path_buff
                0x000000004a07abd8      0x800 net/built-in.o
 .bss.nfs_timeout_count
                0x000000004a07b3d8        0x4 net/built-in.o
 .bss.filefh    0x000000004a07b3dc       0x40 net/built-in.o
 .bss.nfs_our_port
                0x000000004a07b41c        0x4 net/built-in.o
 .bss.net_ping_ip
                0x000000004a07b420        0x4 net/built-in.o
                0x000000004a07b420                net_ping_ip
 .bss.ping_seq_number
                0x000000004a07b424        0x2 net/built-in.o
 *fill*         0x000000004a07b426        0x2 
 .bss.tftp_prev_block
                0x000000004a07b428        0x4 net/built-in.o
 .bss.timeout_count
                0x000000004a07b42c        0x4 net/built-in.o
 .bss.tftp_block_wrap
                0x000000004a07b430        0x4 net/built-in.o
 .bss.default_filename
                0x000000004a07b434        0xd net/built-in.o
 *fill*         0x000000004a07b441        0x3 
 .bss.tftp_remote_port
                0x000000004a07b444        0x4 net/built-in.o
 .bss.tftp_cur_block
                0x000000004a07b448        0x4 net/built-in.o
 .bss.tftp_remote_ip
                0x000000004a07b44c        0x4 net/built-in.o
 .bss.tftp_state
                0x000000004a07b450        0x4 net/built-in.o
 .bss.tftp_our_port
                0x000000004a07b454        0x4 net/built-in.o
 .bss.tftp_filename
                0x000000004a07b458       0x80 net/built-in.o
 .bss.tftp_block_wrap_offset
                0x000000004a07b4d8        0x4 net/built-in.o
                0x000000004a07b4dc                . = ALIGN (0x4)
                0x000000004a07b4dc                __bss_limit = .

.bss_end        0x000000004a07b4dc        0x0
 *(.__bss_end)
 .__bss_end     0x000000004a07b4dc        0x0 arch/arm/lib/built-in.o
                0x000000004a07b4dc                __bss_end

.dynsym         0x000000004a049218       0x60
 *(.dynsym)
 .dynsym        0x000000004a049218       0x60 arch/arm/cpu/armv7/start.o

.dynbss         0x000000004a049278        0x0
 *(.dynbss)
 .dynbss        0x000000004a049278        0x0 arch/arm/cpu/armv7/start.o

.dynstr         0x000000004a049278       0x2a
 *(.dynstr*)
 .dynstr        0x000000004a049278       0x2a arch/arm/cpu/armv7/start.o

.dynamic        0x000000004a0492a4       0x80
 *(.dynamic*)
 .dynamic       0x000000004a0492a4       0x80 arch/arm/cpu/armv7/start.o
                0x000000004a0492a4                _DYNAMIC

.plt            0x000000004a049324        0x0
 *(.plt*)
 .plt           0x000000004a049324        0x0 arch/arm/cpu/armv7/start.o

.interp         0x000000004a049324       0x11
 *(.interp*)
 .interp        0x000000004a049324       0x11 arch/arm/cpu/armv7/start.o

.gnu.hash
 *(.gnu.hash)

.gnu            0x000000004a049338        0x0
 *(.gnu*)
 .gnu.version_d
                0x000000004a049338        0x0 arch/arm/cpu/armv7/start.o
 .gnu.version   0x000000004a049338        0x0 arch/arm/cpu/armv7/start.o
 .gnu.version_r
                0x000000004a049338        0x0 arch/arm/cpu/armv7/start.o

.ARM.exidx
 *(.ARM.exidx*)

.gnu.linkonce.armexidx
 *(.gnu.linkonce.armexidx.*)
LOAD arch/arm/cpu/armv7/start.o
START GROUP
LOAD arch/arm/cpu/built-in.o
LOAD arch/arm/cpu/armv7/built-in.o
LOAD arch/arm/lib/built-in.o
LOAD arch/arm/mach-sunxi/built-in.o
LOAD board/sunxi/built-in.o
LOAD cmd/built-in.o
LOAD common/built-in.o
LOAD disk/built-in.o
LOAD drivers/built-in.o
LOAD drivers/dma/built-in.o
LOAD drivers/gpio/built-in.o
LOAD drivers/i2c/built-in.o
LOAD drivers/mtd/built-in.o
LOAD drivers/mtd/onenand/built-in.o
LOAD drivers/mtd/spi/built-in.o
LOAD drivers/net/built-in.o
LOAD drivers/net/phy/built-in.o
LOAD drivers/pci/built-in.o
LOAD drivers/power/built-in.o
LOAD drivers/power/battery/built-in.o
LOAD drivers/power/domain/built-in.o
LOAD drivers/power/fuel_gauge/built-in.o
LOAD drivers/power/mfd/built-in.o
LOAD drivers/power/pmic/built-in.o
LOAD drivers/power/regulator/built-in.o
LOAD drivers/serial/built-in.o
LOAD drivers/spi/built-in.o
LOAD drivers/usb/common/built-in.o
LOAD drivers/usb/dwc3/built-in.o
LOAD drivers/usb/emul/built-in.o
LOAD drivers/usb/eth/built-in.o
LOAD drivers/usb/gadget/built-in.o
LOAD drivers/usb/gadget/udc/built-in.o
LOAD drivers/usb/host/built-in.o
LOAD drivers/usb/musb-new/built-in.o
LOAD drivers/usb/musb/built-in.o
LOAD drivers/usb/phy/built-in.o
LOAD drivers/usb/ulpi/built-in.o
LOAD env/built-in.o
LOAD fs/built-in.o
LOAD lib/built-in.o
LOAD net/built-in.o
LOAD test/built-in.o
LOAD test/dm/built-in.o
END GROUP
LOAD arch/arm/lib/eabi_compat.o
LOAD arch/arm/lib/lib.a
OUTPUT(u-boot elf32-littlearm)

.ARM.attributes
                0x0000000000000000       0x2f
 .ARM.attributes
                0x0000000000000000       0x1f arch/arm/cpu/armv7/start.o
 .ARM.attributes
                0x000000000000001f       0x31 arch/arm/cpu/armv7/built-in.o
 .ARM.attributes
                0x0000000000000050       0x2b arch/arm/lib/built-in.o
 .ARM.attributes
                0x000000000000007b       0x2d arch/arm/mach-sunxi/built-in.o
 .ARM.attributes
                0x00000000000000a8       0x2d board/sunxi/built-in.o
 .ARM.attributes
                0x00000000000000d5       0x2d cmd/built-in.o
 .ARM.attributes
                0x0000000000000102       0x2d common/built-in.o
 .ARM.attributes
                0x000000000000012f       0x2d disk/built-in.o
 .ARM.attributes
                0x000000000000015c       0x2d drivers/built-in.o
 .ARM.attributes
                0x0000000000000189       0x2d drivers/gpio/built-in.o
 .ARM.attributes
                0x00000000000001b6       0x2d drivers/i2c/built-in.o
 .ARM.attributes
                0x00000000000001e3       0x2d drivers/serial/built-in.o
 .ARM.attributes
                0x0000000000000210       0x2d drivers/usb/host/built-in.o
 .ARM.attributes
                0x000000000000023d       0x2d env/built-in.o
 .ARM.attributes
                0x000000000000026a       0x2d fs/built-in.o
 .ARM.attributes
                0x0000000000000297       0x2d lib/built-in.o
 .ARM.attributes
                0x00000000000002c4       0x2d net/built-in.o
 .ARM.attributes
                0x00000000000002f1       0x2d test/dm/built-in.o
 .ARM.attributes
                0x000000000000031e       0x1f arch/arm/lib/lib.a(ashldi3.o)
 .ARM.attributes
                0x000000000000033d       0x1f arch/arm/lib/lib.a(lib1funcs.o)
 .ARM.attributes
                0x000000000000035c       0x1f arch/arm/lib/lib.a(lshrdi3.o)
 .ARM.attributes
                0x000000000000037b       0x2d arch/arm/lib/lib.a(div0.o)

.comment        0x0000000000000000       0x21
 .comment       0x0000000000000000       0x21 arch/arm/cpu/armv7/built-in.o
                                        0x154 (size before relaxing)
 .comment       0x0000000000000021      0x154 arch/arm/lib/built-in.o
 .comment       0x0000000000000021      0x132 arch/arm/mach-sunxi/built-in.o
 .comment       0x0000000000000021       0x22 board/sunxi/built-in.o
 .comment       0x0000000000000021      0x4ea cmd/built-in.o
 .comment       0x0000000000000021      0x484 common/built-in.o
 .comment       0x0000000000000021       0x88 disk/built-in.o
 .comment       0x0000000000000021      0x30e drivers/built-in.o
 .comment       0x0000000000000021       0x44 drivers/gpio/built-in.o
 .comment       0x0000000000000021       0x44 drivers/i2c/built-in.o
 .comment       0x0000000000000021       0x44 drivers/serial/built-in.o
 .comment       0x0000000000000021       0x22 drivers/usb/host/built-in.o
 .comment       0x0000000000000021       0xcc env/built-in.o
 .comment       0x0000000000000021       0xcc fs/built-in.o
 .comment       0x0000000000000021      0x7b4 lib/built-in.o
 .comment       0x0000000000000021      0x132 net/built-in.o
 .comment       0x0000000000000021       0x22 test/dm/built-in.o
 .comment       0x0000000000000021       0x22 arch/arm/lib/lib.a(div0.o)

.note.GNU-stack
                0x0000000000000000        0x0
 .note.GNU-stack
                0x0000000000000000        0x0 arch/arm/cpu/armv7/built-in.o
 .note.GNU-stack
                0x0000000000000000        0x0 arch/arm/lib/built-in.o
 .note.GNU-stack
                0x0000000000000000        0x0 arch/arm/mach-sunxi/built-in.o
 .note.GNU-stack
                0x0000000000000000        0x0 board/sunxi/built-in.o
 .note.GNU-stack
                0x0000000000000000        0x0 cmd/built-in.o
 .note.GNU-stack
                0x0000000000000000        0x0 common/built-in.o
 .note.GNU-stack
                0x0000000000000000        0x0 disk/built-in.o
 .note.GNU-stack
                0x0000000000000000        0x0 drivers/built-in.o
 .note.GNU-stack
                0x0000000000000000        0x0 drivers/gpio/built-in.o
 .note.GNU-stack
                0x0000000000000000        0x0 drivers/i2c/built-in.o
 .note.GNU-stack
                0x0000000000000000        0x0 drivers/serial/built-in.o
 .note.GNU-stack
                0x0000000000000000        0x0 drivers/usb/host/built-in.o
 .note.GNU-stack
                0x0000000000000000        0x0 env/built-in.o
 .note.GNU-stack
                0x0000000000000000        0x0 fs/built-in.o
 .note.GNU-stack
                0x0000000000000000        0x0 lib/built-in.o
 .note.GNU-stack
                0x0000000000000000        0x0 net/built-in.o
 .note.GNU-stack
                0x0000000000000000        0x0 test/dm/built-in.o
 .note.GNU-stack
                0x0000000000000000        0x0 arch/arm/lib/lib.a(div0.o)

.debug_line     0x0000000000000000    0x23bee
 .debug_line    0x0000000000000000       0x89 arch/arm/cpu/armv7/start.o
 .debug_line    0x0000000000000089      0xc37 arch/arm/cpu/armv7/built-in.o
 .debug_line    0x0000000000000cc0     0x1116 arch/arm/lib/built-in.o
 .debug_line    0x0000000000001dd6      0xd2a arch/arm/mach-sunxi/built-in.o
 .debug_line    0x0000000000002b00      0x3d4 board/sunxi/built-in.o
 .debug_line    0x0000000000002ed4     0x510c cmd/built-in.o
 .debug_line    0x0000000000007fe0     0x75a3 common/built-in.o
 .debug_line    0x000000000000f583     0x127c disk/built-in.o
 .debug_line    0x00000000000107ff     0x4037 drivers/built-in.o
 .debug_line    0x0000000000014836      0xa0a drivers/gpio/built-in.o
 .debug_line    0x0000000000015240      0x834 drivers/i2c/built-in.o
 .debug_line    0x0000000000015a74      0x6ed drivers/serial/built-in.o
 .debug_line    0x0000000000016161      0x5eb drivers/usb/host/built-in.o
 .debug_line    0x000000000001674c      0xbb2 env/built-in.o
 .debug_line    0x00000000000172fe     0x1afb fs/built-in.o
 .debug_line    0x0000000000018df9     0x8a7d lib/built-in.o
 .debug_line    0x0000000000021876     0x202c net/built-in.o
 .debug_line    0x00000000000238a2      0x17d test/dm/built-in.o
 .debug_line    0x0000000000023a1f       0x4d arch/arm/lib/lib.a(ashldi3.o)
 .debug_line    0x0000000000023a6c       0xf1 arch/arm/lib/lib.a(lib1funcs.o)
 .debug_line    0x0000000000023b5d       0x4d arch/arm/lib/lib.a(lshrdi3.o)
 .debug_line    0x0000000000023baa       0x44 arch/arm/lib/lib.a(div0.o)

.debug_info     0x0000000000000000    0xe34ca
 .debug_info    0x0000000000000000       0x83 arch/arm/cpu/armv7/start.o
 .debug_info    0x0000000000000083     0x2900 arch/arm/cpu/armv7/built-in.o
 .debug_info    0x0000000000002983     0x50ca arch/arm/lib/built-in.o
 .debug_info    0x0000000000007a4d     0x4ef8 arch/arm/mach-sunxi/built-in.o
 .debug_info    0x000000000000c945     0x2196 board/sunxi/built-in.o
 .debug_info    0x000000000000eadb    0x25745 cmd/built-in.o
 .debug_info    0x0000000000034220    0x2e3a2 common/built-in.o
 .debug_info    0x00000000000625c2     0x6c2d disk/built-in.o
 .debug_info    0x00000000000691ef    0x1cc88 drivers/built-in.o
 .debug_info    0x0000000000085e77     0x43d9 drivers/gpio/built-in.o
 .debug_info    0x000000000008a250     0x426f drivers/i2c/built-in.o
 .debug_info    0x000000000008e4bf     0x3490 drivers/serial/built-in.o
 .debug_info    0x000000000009194f     0x2eb1 drivers/usb/host/built-in.o
 .debug_info    0x0000000000094800     0x4cde env/built-in.o
 .debug_info    0x00000000000994de     0xb00a fs/built-in.o
 .debug_info    0x00000000000a44e8    0x32288 lib/built-in.o
 .debug_info    0x00000000000d6770     0xbd52 net/built-in.o
 .debug_info    0x00000000000e24c2      0xe3a test/dm/built-in.o
 .debug_info    0x00000000000e32fc       0x7f arch/arm/lib/lib.a(ashldi3.o)
 .debug_info    0x00000000000e337b       0x7d arch/arm/lib/lib.a(lib1funcs.o)
 .debug_info    0x00000000000e33f8       0x7f arch/arm/lib/lib.a(lshrdi3.o)
 .debug_info    0x00000000000e3477       0x53 arch/arm/lib/lib.a(div0.o)

.debug_abbrev   0x0000000000000000    0x267af
 .debug_abbrev  0x0000000000000000       0x14 arch/arm/cpu/armv7/start.o
 .debug_abbrev  0x0000000000000014      0xf3a arch/arm/cpu/armv7/built-in.o
 .debug_abbrev  0x0000000000000f4e     0x1310 arch/arm/lib/built-in.o
 .debug_abbrev  0x000000000000225e     0x1261 arch/arm/mach-sunxi/built-in.o
 .debug_abbrev  0x00000000000034bf      0x4ad board/sunxi/built-in.o
 .debug_abbrev  0x000000000000396c     0x65ea cmd/built-in.o
 .debug_abbrev  0x0000000000009f56     0x728e common/built-in.o
 .debug_abbrev  0x00000000000111e4     0x1253 disk/built-in.o
 .debug_abbrev  0x0000000000012437     0x460d drivers/built-in.o
 .debug_abbrev  0x0000000000016a44      0x914 drivers/gpio/built-in.o
 .debug_abbrev  0x0000000000017358      0x91a drivers/i2c/built-in.o
 .debug_abbrev  0x0000000000017c72      0x901 drivers/serial/built-in.o
 .debug_abbrev  0x0000000000018573      0x523 drivers/usb/host/built-in.o
 .debug_abbrev  0x0000000000018a96     0x11d5 env/built-in.o
 .debug_abbrev  0x0000000000019c6b     0x1719 fs/built-in.o
 .debug_abbrev  0x000000000001b384     0x908e lib/built-in.o
 .debug_abbrev  0x0000000000024412     0x20eb net/built-in.o
 .debug_abbrev  0x00000000000264fd      0x22b test/dm/built-in.o
 .debug_abbrev  0x0000000000026728       0x14 arch/arm/lib/lib.a(ashldi3.o)
 .debug_abbrev  0x000000000002673c       0x12 arch/arm/lib/lib.a(lib1funcs.o)
 .debug_abbrev  0x000000000002674e       0x14 arch/arm/lib/lib.a(lshrdi3.o)
 .debug_abbrev  0x0000000000026762       0x4d arch/arm/lib/lib.a(div0.o)

.debug_aranges  0x0000000000000000     0x5198
 .debug_aranges
                0x0000000000000000       0x20 arch/arm/cpu/armv7/start.o
 .debug_aranges
                0x0000000000000020      0x2c8 arch/arm/cpu/armv7/built-in.o
 .debug_aranges
                0x00000000000002e8      0x308 arch/arm/lib/built-in.o
 .debug_aranges
                0x00000000000005f0      0x260 arch/arm/mach-sunxi/built-in.o
 .debug_aranges
                0x0000000000000850       0x60 board/sunxi/built-in.o
 .debug_aranges
                0x00000000000008b0      0x9c8 cmd/built-in.o
 .debug_aranges
                0x0000000000001278     0x1030 common/built-in.o
 .debug_aranges
                0x00000000000022a8      0x1b0 disk/built-in.o
 .debug_aranges
                0x0000000000002458      0x928 drivers/built-in.o
 .debug_aranges
                0x0000000000002d80      0x1d0 drivers/gpio/built-in.o
 .debug_aranges
                0x0000000000002f50      0x128 drivers/i2c/built-in.o
 .debug_aranges
                0x0000000000003078      0x138 drivers/serial/built-in.o
 .debug_aranges
                0x00000000000031b0       0xd0 drivers/usb/host/built-in.o
 .debug_aranges
                0x0000000000003280      0x1a8 env/built-in.o
 .debug_aranges
                0x0000000000003428      0x350 fs/built-in.o
 .debug_aranges
                0x0000000000003778     0x1518 lib/built-in.o
 .debug_aranges
                0x0000000000004c90      0x428 net/built-in.o
 .debug_aranges
                0x00000000000050b8       0x38 test/dm/built-in.o
 .debug_aranges
                0x00000000000050f0       0x20 arch/arm/lib/lib.a(ashldi3.o)
 .debug_aranges
                0x0000000000005110       0x48 arch/arm/lib/lib.a(lib1funcs.o)
 .debug_aranges
                0x0000000000005158       0x20 arch/arm/lib/lib.a(lshrdi3.o)
 .debug_aranges
                0x0000000000005178       0x20 arch/arm/lib/lib.a(div0.o)

.debug_frame    0x0000000000000000     0xe274
 .debug_frame   0x0000000000000000      0x440 arch/arm/cpu/armv7/built-in.o
 .debug_frame   0x0000000000000440      0x49c arch/arm/lib/built-in.o
 .debug_frame   0x00000000000008dc      0x4ec arch/arm/mach-sunxi/built-in.o
 .debug_frame   0x0000000000000dc8      0x108 board/sunxi/built-in.o
 .debug_frame   0x0000000000000ed0     0x1b20 cmd/built-in.o
 .debug_frame   0x00000000000029f0     0x2e50 common/built-in.o
 .debug_frame   0x0000000000005840      0x62c disk/built-in.o
 .debug_frame   0x0000000000005e6c     0x18dc drivers/built-in.o
 .debug_frame   0x0000000000007748      0x638 drivers/gpio/built-in.o
 .debug_frame   0x0000000000007d80      0x3f8 drivers/i2c/built-in.o
 .debug_frame   0x0000000000008178      0x34c drivers/serial/built-in.o
 .debug_frame   0x00000000000084c4      0x29c drivers/usb/host/built-in.o
 .debug_frame   0x0000000000008760      0x4b8 env/built-in.o
 .debug_frame   0x0000000000008c18      0xb18 fs/built-in.o
 .debug_frame   0x0000000000009730     0x3dbc lib/built-in.o
 .debug_frame   0x000000000000d4ec      0xcf0 net/built-in.o
 .debug_frame   0x000000000000e1dc       0x78 test/dm/built-in.o
 .debug_frame   0x000000000000e254       0x20 arch/arm/lib/lib.a(div0.o)

.debug_str      0x0000000000000000    0x186a4
 .debug_str     0x0000000000000000      0xfdf arch/arm/cpu/armv7/built-in.o
                                       0x281b (size before relaxing)
 .debug_str     0x0000000000000fdf     0x1aa9 arch/arm/lib/built-in.o
                                       0x4728 (size before relaxing)
 .debug_str     0x0000000000002a88      0xf44 arch/arm/mach-sunxi/built-in.o
                                       0x4104 (size before relaxing)
 .debug_str     0x00000000000039cc      0x723 board/sunxi/built-in.o
                                       0x11ca (size before relaxing)
 .debug_str     0x00000000000040ef     0x47c9 cmd/built-in.o
                                      0x14a54 (size before relaxing)
 .debug_str     0x00000000000088b8     0x46a1 common/built-in.o
                                      0x1bf4b (size before relaxing)
 .debug_str     0x000000000000cf59      0x9ca disk/built-in.o
                                       0x2afc (size before relaxing)
 .debug_str     0x000000000000d923     0x2070 drivers/built-in.o
                                      0x13ae7 (size before relaxing)
 .debug_str     0x000000000000f993      0x501 drivers/gpio/built-in.o
                                       0x24b1 (size before relaxing)
 .debug_str     0x000000000000fe94      0x668 drivers/i2c/built-in.o
                                       0x247a (size before relaxing)
 .debug_str     0x00000000000104fc      0x4e4 drivers/serial/built-in.o
                                       0x2149 (size before relaxing)
 .debug_str     0x00000000000109e0      0x273 drivers/usb/host/built-in.o
                                       0x182c (size before relaxing)
 .debug_str     0x0000000000010c53      0x64a env/built-in.o
                                       0x35c3 (size before relaxing)
 .debug_str     0x000000000001129d     0x1441 fs/built-in.o
                                       0x49f9 (size before relaxing)
 .debug_str     0x00000000000126de     0x4af0 lib/built-in.o
                                      0x1b432 (size before relaxing)
 .debug_str     0x00000000000171ce     0x1442 net/built-in.o
                                       0x824a (size before relaxing)
 .debug_str     0x0000000000018610       0x79 test/dm/built-in.o
                                        0xdaa (size before relaxing)
 .debug_str     0x0000000000018689       0x1b arch/arm/lib/lib.a(div0.o)
                                        0x1a8 (size before relaxing)

.debug_loc      0x0000000000000000    0x6b829
 .debug_loc     0x0000000000000000      0xa86 arch/arm/cpu/armv7/built-in.o
 .debug_loc     0x0000000000000a86     0x100d arch/arm/lib/built-in.o
 .debug_loc     0x0000000000001a93     0x188b arch/arm/mach-sunxi/built-in.o
 .debug_loc     0x000000000000331e      0x42f board/sunxi/built-in.o
 .debug_loc     0x000000000000374d    0x112ad cmd/built-in.o
 .debug_loc     0x00000000000149fa    0x16433 common/built-in.o
 .debug_loc     0x000000000002ae2d     0x368f disk/built-in.o
 .debug_loc     0x000000000002e4bc     0xa625 drivers/built-in.o
 .debug_loc     0x0000000000038ae1     0x20a8 drivers/gpio/built-in.o
 .debug_loc     0x000000000003ab89     0x2183 drivers/i2c/built-in.o
 .debug_loc     0x000000000003cd0c      0xe1c drivers/serial/built-in.o
 .debug_loc     0x000000000003db28     0x1556 drivers/usb/host/built-in.o
 .debug_loc     0x000000000003f07e     0x19fe env/built-in.o
 .debug_loc     0x0000000000040a7c     0x74ca fs/built-in.o
 .debug_loc     0x0000000000047f46    0x1e702 lib/built-in.o
 .debug_loc     0x0000000000066648     0x4f83 net/built-in.o
 .debug_loc     0x000000000006b5cb      0x25e test/dm/built-in.o

.debug_ranges   0x0000000000000000     0x8cd0
 .debug_ranges  0x0000000000000000      0x320 arch/arm/cpu/armv7/built-in.o
 .debug_ranges  0x0000000000000320      0x300 arch/arm/lib/built-in.o
 .debug_ranges  0x0000000000000620      0x308 arch/arm/mach-sunxi/built-in.o
 .debug_ranges  0x0000000000000928       0x68 board/sunxi/built-in.o
 .debug_ranges  0x0000000000000990     0x10d8 cmd/built-in.o
 .debug_ranges  0x0000000000001a68     0x1b08 common/built-in.o
 .debug_ranges  0x0000000000003570      0x708 disk/built-in.o
 .debug_ranges  0x0000000000003c78      0xfa8 drivers/built-in.o
 .debug_ranges  0x0000000000004c20      0x290 drivers/gpio/built-in.o
 .debug_ranges  0x0000000000004eb0      0x3d0 drivers/i2c/built-in.o
 .debug_ranges  0x0000000000005280      0x1b0 drivers/serial/built-in.o
 .debug_ranges  0x0000000000005430      0x1e0 drivers/usb/host/built-in.o
 .debug_ranges  0x0000000000005610      0x278 env/built-in.o
 .debug_ranges  0x0000000000005888      0x828 fs/built-in.o
 .debug_ranges  0x00000000000060b0     0x2218 lib/built-in.o
 .debug_ranges  0x00000000000082c8      0x990 net/built-in.o
 .debug_ranges  0x0000000000008c58       0x28 test/dm/built-in.o
 .debug_ranges  0x0000000000008c80       0x40 arch/arm/lib/lib.a(lib1funcs.o)
 .debug_ranges  0x0000000000008cc0       0x10 arch/arm/lib/lib.a(div0.o)
